

Microchip MPLAB XC8 Assembler V2.35 build 20211206165544 
                                                                                               Wed Aug 23 14:48:12 2023

Microchip MPLAB XC8 C Compiler v2.35 (Free license) build 20211206165544 Og1 
     1                           	processor	16F1937
     2                           	pagewidth 120
     3                           	opt	flic
     4                           	psect	stringtext1,global,class=STRCODE,delta=2,noexec
     5                           	psect	cinit,global,class=CODE,merge=1,delta=2
     6                           	psect	bssCOMMON,global,class=COMMON,space=1,delta=1,noexec
     7                           	psect	bssBANK0,global,class=BANK0,space=1,delta=1,noexec
     8                           	psect	bssBANK1,global,class=BANK1,space=1,delta=1,noexec
     9                           	psect	bssBANK2,global,class=BANK2,space=1,delta=1,noexec
    10                           	psect	clrtext,global,class=CODE,delta=2
    11                           	psect	cstackCOMMON,global,class=COMMON,space=1,delta=1,noexec
    12                           	psect	cstackBANK0,global,class=BANK0,space=1,delta=1,noexec
    13                           	psect	maintext,global,class=CODE,merge=1,split=1,delta=2
    14                           	psect	text1,local,class=CODE,merge=1,delta=2
    15                           	psect	text2,local,class=CODE,merge=1,delta=2
    16                           	psect	text3,local,class=CODE,merge=1,delta=2
    17                           	psect	text4,local,class=CODE,merge=1,delta=2
    18                           	psect	text5,local,class=CODE,merge=1,delta=2
    19                           	psect	text6,local,class=CODE,merge=1,delta=2
    20                           	psect	text7,local,class=CODE,merge=1,delta=2
    21                           	psect	text8,local,class=CODE,merge=1,delta=2
    22                           	psect	text9,local,class=CODE,merge=1,delta=2
    23                           	psect	text10,local,class=CODE,merge=1,delta=2
    24                           	psect	text11,local,class=CODE,merge=1,delta=2
    25                           	psect	intentry,global,class=CODE,delta=2
    26                           	psect	text13,local,class=CODE,merge=1,delta=2
    27                           	psect	text14,local,class=CODE,merge=1,delta=2
    28                           	psect	text15,local,class=CODE,merge=1,delta=2
    29                           	psect	text16,local,class=CODE,merge=1,delta=2
    30                           	psect	text17,local,class=CODE,merge=1,delta=2
    31                           	psect	text18,local,class=CODE,merge=1,delta=2
    32                           	psect	text19,local,class=CODE,merge=1,delta=2
    33                           	psect	text20,local,class=CODE,merge=1,delta=2
    34                           	psect	idloc,global,abs,ovrld,class=IDLOC,space=5,delta=2,noexec
    35                           	psect	config,global,abs,ovrld,class=CONFIG,space=4,delta=2,noexec
    36                           	dabs	1,0x7E,2
    37  0000                     
    38                           ; Version 2.40
    39                           ; Generated 17/11/2021 GMT
    40                           ; 
    41                           ; Copyright © 2021, Microchip Technology Inc. and its subsidiaries ("Microchip")
    42                           ; All rights reserved.
    43                           ; 
    44                           ; This software is developed by Microchip Technology Inc. and its subsidiaries ("Microch
      +                          ip").
    45                           ; 
    46                           ; Redistribution and use in source and binary forms, with or without modification, are
    47                           ; permitted provided that the following conditions are met:
    48                           ; 
    49                           ;     1. Redistributions of source code must retain the above copyright notice, this lis
      +                          t of
    50                           ;        conditions and the following disclaimer.
    51                           ; 
    52                           ;     2. Redistributions in binary form must reproduce the above copyright notice, this 
      +                          list
    53                           ;        of conditions and the following disclaimer in the documentation and/or other
    54                           ;        materials provided with the distribution. Publication is not required when
    55                           ;        this file is used in an embedded application.
    56                           ; 
    57                           ;     3. Microchip's name may not be used to endorse or promote products derived from th
      +                          is
    58                           ;        software without specific prior written permission.
    59                           ; 
    60                           ; THIS SOFTWARE IS PROVIDED BY MICROCHIP "AS IS" AND ANY EXPRESS OR IMPLIED WARRANTIES,
    61                           ; INCLUDING, BUT NOT LIMITED TO, THE IMPLIED WARRANTIES OF MERCHANTABILITY AND FITNESS F
      +                          OR
    62                           ; PURPOSE ARE DISCLAIMED.  IN NO EVENT SHALL MICROCHIP BE LIABLE FOR ANY DIRECT, INDIREC
      +                          T,
    63                           ; INCIDENTAL, SPECIAL, EXEMPLARY, OR CONSEQUENTIAL DAMAGES (INCLUDING BUT NOT LIMITED TO
    64                           ; PROCUREMENT OF SUBSTITUTE GOODS OR SERVICES; LOSS OF USE, DATA OR PROFITS; OR BUSINESS
    65                           ; INTERRUPTION) HOWSOEVER CAUSED AND ON ANY THEORY OF LIABILITY, WHETHER IN CONTRACT, ST
      +                          RICT
    66                           ; LIABILITY, OR TORT (INCLUDING NEGLIGENCE OR OTHERWISE) ARISING IN ANY WAY OUT OF THE U
      +                          SE OF
    67                           ; THIS SOFTWARE, EVEN IF ADVISED OF THE POSSIBILITY OF SUCH DAMAGE.
    68                           ; 
    69                           ; 
    70                           ; Code-generator required, PIC16F1937 Definitions
    71                           ; 
    72                           ; SFR Addresses
    73  0000                     	;# 
    74  0001                     	;# 
    75  0002                     	;# 
    76  0003                     	;# 
    77  0004                     	;# 
    78  0005                     	;# 
    79  0006                     	;# 
    80  0007                     	;# 
    81  0008                     	;# 
    82  0009                     	;# 
    83  000A                     	;# 
    84  000B                     	;# 
    85  000C                     	;# 
    86  000D                     	;# 
    87  000E                     	;# 
    88  000F                     	;# 
    89  0010                     	;# 
    90  0011                     	;# 
    91  0012                     	;# 
    92  0013                     	;# 
    93  0015                     	;# 
    94  0016                     	;# 
    95  0016                     	;# 
    96  0017                     	;# 
    97  0018                     	;# 
    98  0019                     	;# 
    99  001A                     	;# 
   100  001B                     	;# 
   101  001C                     	;# 
   102  001E                     	;# 
   103  001F                     	;# 
   104  008C                     	;# 
   105  008D                     	;# 
   106  008E                     	;# 
   107  008F                     	;# 
   108  0090                     	;# 
   109  0091                     	;# 
   110  0092                     	;# 
   111  0093                     	;# 
   112  0095                     	;# 
   113  0096                     	;# 
   114  0097                     	;# 
   115  0098                     	;# 
   116  0099                     	;# 
   117  009A                     	;# 
   118  009B                     	;# 
   119  009B                     	;# 
   120  009C                     	;# 
   121  009D                     	;# 
   122  009E                     	;# 
   123  010C                     	;# 
   124  010D                     	;# 
   125  010E                     	;# 
   126  010F                     	;# 
   127  0110                     	;# 
   128  0111                     	;# 
   129  0112                     	;# 
   130  0113                     	;# 
   131  0114                     	;# 
   132  0115                     	;# 
   133  0116                     	;# 
   134  0117                     	;# 
   135  0118                     	;# 
   136  0119                     	;# 
   137  011A                     	;# 
   138  011B                     	;# 
   139  011D                     	;# 
   140  018C                     	;# 
   141  018D                     	;# 
   142  018F                     	;# 
   143  0190                     	;# 
   144  0191                     	;# 
   145  0191                     	;# 
   146  0192                     	;# 
   147  0193                     	;# 
   148  0193                     	;# 
   149  0193                     	;# 
   150  0194                     	;# 
   151  0195                     	;# 
   152  0196                     	;# 
   153  0199                     	;# 
   154  019A                     	;# 
   155  019B                     	;# 
   156  019B                     	;# 
   157  019B                     	;# 
   158  019B                     	;# 
   159  019C                     	;# 
   160  019C                     	;# 
   161  019D                     	;# 
   162  019E                     	;# 
   163  019F                     	;# 
   164  020D                     	;# 
   165  0210                     	;# 
   166  0211                     	;# 
   167  0212                     	;# 
   168  0213                     	;# 
   169  0214                     	;# 
   170  0215                     	;# 
   171  0215                     	;# 
   172  0216                     	;# 
   173  0217                     	;# 
   174  0291                     	;# 
   175  0291                     	;# 
   176  0292                     	;# 
   177  0293                     	;# 
   178  0294                     	;# 
   179  0295                     	;# 
   180  0295                     	;# 
   181  0296                     	;# 
   182  0298                     	;# 
   183  0298                     	;# 
   184  0299                     	;# 
   185  029A                     	;# 
   186  029B                     	;# 
   187  029C                     	;# 
   188  029C                     	;# 
   189  029D                     	;# 
   190  029E                     	;# 
   191  029F                     	;# 
   192  0311                     	;# 
   193  0311                     	;# 
   194  0312                     	;# 
   195  0313                     	;# 
   196  0314                     	;# 
   197  0315                     	;# 
   198  0315                     	;# 
   199  0316                     	;# 
   200  0318                     	;# 
   201  0318                     	;# 
   202  0319                     	;# 
   203  031A                     	;# 
   204  031C                     	;# 
   205  031C                     	;# 
   206  031D                     	;# 
   207  031E                     	;# 
   208  0394                     	;# 
   209  0395                     	;# 
   210  0396                     	;# 
   211  0415                     	;# 
   212  0416                     	;# 
   213  0417                     	;# 
   214  041C                     	;# 
   215  041D                     	;# 
   216  041E                     	;# 
   217  0791                     	;# 
   218  0792                     	;# 
   219  0793                     	;# 
   220  0794                     	;# 
   221  0795                     	;# 
   222  0798                     	;# 
   223  0799                     	;# 
   224  079A                     	;# 
   225  07A0                     	;# 
   226  07A1                     	;# 
   227  07A2                     	;# 
   228  07A3                     	;# 
   229  07A4                     	;# 
   230  07A5                     	;# 
   231  07A6                     	;# 
   232  07A7                     	;# 
   233  07A8                     	;# 
   234  07A9                     	;# 
   235  07AA                     	;# 
   236  07AB                     	;# 
   237  0FE4                     	;# 
   238  0FE5                     	;# 
   239  0FE6                     	;# 
   240  0FE7                     	;# 
   241  0FE8                     	;# 
   242  0FE9                     	;# 
   243  0FEA                     	;# 
   244  0FEB                     	;# 
   245  0FED                     	;# 
   246  0FEE                     	;# 
   247  0FEF                     	;# 
   248  0000                     	;# 
   249  0001                     	;# 
   250  0002                     	;# 
   251  0003                     	;# 
   252  0004                     	;# 
   253  0005                     	;# 
   254  0006                     	;# 
   255  0007                     	;# 
   256  0008                     	;# 
   257  0009                     	;# 
   258  000A                     	;# 
   259  000B                     	;# 
   260  000C                     	;# 
   261  000D                     	;# 
   262  000E                     	;# 
   263  000F                     	;# 
   264  0010                     	;# 
   265  0011                     	;# 
   266  0012                     	;# 
   267  0013                     	;# 
   268  0015                     	;# 
   269  0016                     	;# 
   270  0016                     	;# 
   271  0017                     	;# 
   272  0018                     	;# 
   273  0019                     	;# 
   274  001A                     	;# 
   275  001B                     	;# 
   276  001C                     	;# 
   277  001E                     	;# 
   278  001F                     	;# 
   279  008C                     	;# 
   280  008D                     	;# 
   281  008E                     	;# 
   282  008F                     	;# 
   283  0090                     	;# 
   284  0091                     	;# 
   285  0092                     	;# 
   286  0093                     	;# 
   287  0095                     	;# 
   288  0096                     	;# 
   289  0097                     	;# 
   290  0098                     	;# 
   291  0099                     	;# 
   292  009A                     	;# 
   293  009B                     	;# 
   294  009B                     	;# 
   295  009C                     	;# 
   296  009D                     	;# 
   297  009E                     	;# 
   298  010C                     	;# 
   299  010D                     	;# 
   300  010E                     	;# 
   301  010F                     	;# 
   302  0110                     	;# 
   303  0111                     	;# 
   304  0112                     	;# 
   305  0113                     	;# 
   306  0114                     	;# 
   307  0115                     	;# 
   308  0116                     	;# 
   309  0117                     	;# 
   310  0118                     	;# 
   311  0119                     	;# 
   312  011A                     	;# 
   313  011B                     	;# 
   314  011D                     	;# 
   315  018C                     	;# 
   316  018D                     	;# 
   317  018F                     	;# 
   318  0190                     	;# 
   319  0191                     	;# 
   320  0191                     	;# 
   321  0192                     	;# 
   322  0193                     	;# 
   323  0193                     	;# 
   324  0193                     	;# 
   325  0194                     	;# 
   326  0195                     	;# 
   327  0196                     	;# 
   328  0199                     	;# 
   329  019A                     	;# 
   330  019B                     	;# 
   331  019B                     	;# 
   332  019B                     	;# 
   333  019B                     	;# 
   334  019C                     	;# 
   335  019C                     	;# 
   336  019D                     	;# 
   337  019E                     	;# 
   338  019F                     	;# 
   339  020D                     	;# 
   340  0210                     	;# 
   341  0211                     	;# 
   342  0212                     	;# 
   343  0213                     	;# 
   344  0214                     	;# 
   345  0215                     	;# 
   346  0215                     	;# 
   347  0216                     	;# 
   348  0217                     	;# 
   349  0291                     	;# 
   350  0291                     	;# 
   351  0292                     	;# 
   352  0293                     	;# 
   353  0294                     	;# 
   354  0295                     	;# 
   355  0295                     	;# 
   356  0296                     	;# 
   357  0298                     	;# 
   358  0298                     	;# 
   359  0299                     	;# 
   360  029A                     	;# 
   361  029B                     	;# 
   362  029C                     	;# 
   363  029C                     	;# 
   364  029D                     	;# 
   365  029E                     	;# 
   366  029F                     	;# 
   367  0311                     	;# 
   368  0311                     	;# 
   369  0312                     	;# 
   370  0313                     	;# 
   371  0314                     	;# 
   372  0315                     	;# 
   373  0315                     	;# 
   374  0316                     	;# 
   375  0318                     	;# 
   376  0318                     	;# 
   377  0319                     	;# 
   378  031A                     	;# 
   379  031C                     	;# 
   380  031C                     	;# 
   381  031D                     	;# 
   382  031E                     	;# 
   383  0394                     	;# 
   384  0395                     	;# 
   385  0396                     	;# 
   386  0415                     	;# 
   387  0416                     	;# 
   388  0417                     	;# 
   389  041C                     	;# 
   390  041D                     	;# 
   391  041E                     	;# 
   392  0791                     	;# 
   393  0792                     	;# 
   394  0793                     	;# 
   395  0794                     	;# 
   396  0795                     	;# 
   397  0798                     	;# 
   398  0799                     	;# 
   399  079A                     	;# 
   400  07A0                     	;# 
   401  07A1                     	;# 
   402  07A2                     	;# 
   403  07A3                     	;# 
   404  07A4                     	;# 
   405  07A5                     	;# 
   406  07A6                     	;# 
   407  07A7                     	;# 
   408  07A8                     	;# 
   409  07A9                     	;# 
   410  07AA                     	;# 
   411  07AB                     	;# 
   412  0FE4                     	;# 
   413  0FE5                     	;# 
   414  0FE6                     	;# 
   415  0FE7                     	;# 
   416  0FE8                     	;# 
   417  0FE9                     	;# 
   418  0FEA                     	;# 
   419  0FEB                     	;# 
   420  0FED                     	;# 
   421  0FEE                     	;# 
   422  0FEF                     	;# 
   423  0000                     	;# 
   424  0001                     	;# 
   425  0002                     	;# 
   426  0003                     	;# 
   427  0004                     	;# 
   428  0005                     	;# 
   429  0006                     	;# 
   430  0007                     	;# 
   431  0008                     	;# 
   432  0009                     	;# 
   433  000A                     	;# 
   434  000B                     	;# 
   435  000C                     	;# 
   436  000D                     	;# 
   437  000E                     	;# 
   438  000F                     	;# 
   439  0010                     	;# 
   440  0011                     	;# 
   441  0012                     	;# 
   442  0013                     	;# 
   443  0015                     	;# 
   444  0016                     	;# 
   445  0016                     	;# 
   446  0017                     	;# 
   447  0018                     	;# 
   448  0019                     	;# 
   449  001A                     	;# 
   450  001B                     	;# 
   451  001C                     	;# 
   452  001E                     	;# 
   453  001F                     	;# 
   454  008C                     	;# 
   455  008D                     	;# 
   456  008E                     	;# 
   457  008F                     	;# 
   458  0090                     	;# 
   459  0091                     	;# 
   460  0092                     	;# 
   461  0093                     	;# 
   462  0095                     	;# 
   463  0096                     	;# 
   464  0097                     	;# 
   465  0098                     	;# 
   466  0099                     	;# 
   467  009A                     	;# 
   468  009B                     	;# 
   469  009B                     	;# 
   470  009C                     	;# 
   471  009D                     	;# 
   472  009E                     	;# 
   473  010C                     	;# 
   474  010D                     	;# 
   475  010E                     	;# 
   476  010F                     	;# 
   477  0110                     	;# 
   478  0111                     	;# 
   479  0112                     	;# 
   480  0113                     	;# 
   481  0114                     	;# 
   482  0115                     	;# 
   483  0116                     	;# 
   484  0117                     	;# 
   485  0118                     	;# 
   486  0119                     	;# 
   487  011A                     	;# 
   488  011B                     	;# 
   489  011D                     	;# 
   490  018C                     	;# 
   491  018D                     	;# 
   492  018F                     	;# 
   493  0190                     	;# 
   494  0191                     	;# 
   495  0191                     	;# 
   496  0192                     	;# 
   497  0193                     	;# 
   498  0193                     	;# 
   499  0193                     	;# 
   500  0194                     	;# 
   501  0195                     	;# 
   502  0196                     	;# 
   503  0199                     	;# 
   504  019A                     	;# 
   505  019B                     	;# 
   506  019B                     	;# 
   507  019B                     	;# 
   508  019B                     	;# 
   509  019C                     	;# 
   510  019C                     	;# 
   511  019D                     	;# 
   512  019E                     	;# 
   513  019F                     	;# 
   514  020D                     	;# 
   515  0210                     	;# 
   516  0211                     	;# 
   517  0212                     	;# 
   518  0213                     	;# 
   519  0214                     	;# 
   520  0215                     	;# 
   521  0215                     	;# 
   522  0216                     	;# 
   523  0217                     	;# 
   524  0291                     	;# 
   525  0291                     	;# 
   526  0292                     	;# 
   527  0293                     	;# 
   528  0294                     	;# 
   529  0295                     	;# 
   530  0295                     	;# 
   531  0296                     	;# 
   532  0298                     	;# 
   533  0298                     	;# 
   534  0299                     	;# 
   535  029A                     	;# 
   536  029B                     	;# 
   537  029C                     	;# 
   538  029C                     	;# 
   539  029D                     	;# 
   540  029E                     	;# 
   541  029F                     	;# 
   542  0311                     	;# 
   543  0311                     	;# 
   544  0312                     	;# 
   545  0313                     	;# 
   546  0314                     	;# 
   547  0315                     	;# 
   548  0315                     	;# 
   549  0316                     	;# 
   550  0318                     	;# 
   551  0318                     	;# 
   552  0319                     	;# 
   553  031A                     	;# 
   554  031C                     	;# 
   555  031C                     	;# 
   556  031D                     	;# 
   557  031E                     	;# 
   558  0394                     	;# 
   559  0395                     	;# 
   560  0396                     	;# 
   561  0415                     	;# 
   562  0416                     	;# 
   563  0417                     	;# 
   564  041C                     	;# 
   565  041D                     	;# 
   566  041E                     	;# 
   567  0791                     	;# 
   568  0792                     	;# 
   569  0793                     	;# 
   570  0794                     	;# 
   571  0795                     	;# 
   572  0798                     	;# 
   573  0799                     	;# 
   574  079A                     	;# 
   575  07A0                     	;# 
   576  07A1                     	;# 
   577  07A2                     	;# 
   578  07A3                     	;# 
   579  07A4                     	;# 
   580  07A5                     	;# 
   581  07A6                     	;# 
   582  07A7                     	;# 
   583  07A8                     	;# 
   584  07A9                     	;# 
   585  07AA                     	;# 
   586  07AB                     	;# 
   587  0FE4                     	;# 
   588  0FE5                     	;# 
   589  0FE6                     	;# 
   590  0FE7                     	;# 
   591  0FE8                     	;# 
   592  0FE9                     	;# 
   593  0FEA                     	;# 
   594  0FEB                     	;# 
   595  0FED                     	;# 
   596  0FEE                     	;# 
   597  0FEF                     	;# 
   598  0000                     	;# 
   599  0001                     	;# 
   600  0002                     	;# 
   601  0003                     	;# 
   602  0004                     	;# 
   603  0005                     	;# 
   604  0006                     	;# 
   605  0007                     	;# 
   606  0008                     	;# 
   607  0009                     	;# 
   608  000A                     	;# 
   609  000B                     	;# 
   610  000C                     	;# 
   611  000D                     	;# 
   612  000E                     	;# 
   613  000F                     	;# 
   614  0010                     	;# 
   615  0011                     	;# 
   616  0012                     	;# 
   617  0013                     	;# 
   618  0015                     	;# 
   619  0016                     	;# 
   620  0016                     	;# 
   621  0017                     	;# 
   622  0018                     	;# 
   623  0019                     	;# 
   624  001A                     	;# 
   625  001B                     	;# 
   626  001C                     	;# 
   627  001E                     	;# 
   628  001F                     	;# 
   629  008C                     	;# 
   630  008D                     	;# 
   631  008E                     	;# 
   632  008F                     	;# 
   633  0090                     	;# 
   634  0091                     	;# 
   635  0092                     	;# 
   636  0093                     	;# 
   637  0095                     	;# 
   638  0096                     	;# 
   639  0097                     	;# 
   640  0098                     	;# 
   641  0099                     	;# 
   642  009A                     	;# 
   643  009B                     	;# 
   644  009B                     	;# 
   645  009C                     	;# 
   646  009D                     	;# 
   647  009E                     	;# 
   648  010C                     	;# 
   649  010D                     	;# 
   650  010E                     	;# 
   651  010F                     	;# 
   652  0110                     	;# 
   653  0111                     	;# 
   654  0112                     	;# 
   655  0113                     	;# 
   656  0114                     	;# 
   657  0115                     	;# 
   658  0116                     	;# 
   659  0117                     	;# 
   660  0118                     	;# 
   661  0119                     	;# 
   662  011A                     	;# 
   663  011B                     	;# 
   664  011D                     	;# 
   665  018C                     	;# 
   666  018D                     	;# 
   667  018F                     	;# 
   668  0190                     	;# 
   669  0191                     	;# 
   670  0191                     	;# 
   671  0192                     	;# 
   672  0193                     	;# 
   673  0193                     	;# 
   674  0193                     	;# 
   675  0194                     	;# 
   676  0195                     	;# 
   677  0196                     	;# 
   678  0199                     	;# 
   679  019A                     	;# 
   680  019B                     	;# 
   681  019B                     	;# 
   682  019B                     	;# 
   683  019B                     	;# 
   684  019C                     	;# 
   685  019C                     	;# 
   686  019D                     	;# 
   687  019E                     	;# 
   688  019F                     	;# 
   689  020D                     	;# 
   690  0210                     	;# 
   691  0211                     	;# 
   692  0212                     	;# 
   693  0213                     	;# 
   694  0214                     	;# 
   695  0215                     	;# 
   696  0215                     	;# 
   697  0216                     	;# 
   698  0217                     	;# 
   699  0291                     	;# 
   700  0291                     	;# 
   701  0292                     	;# 
   702  0293                     	;# 
   703  0294                     	;# 
   704  0295                     	;# 
   705  0295                     	;# 
   706  0296                     	;# 
   707  0298                     	;# 
   708  0298                     	;# 
   709  0299                     	;# 
   710  029A                     	;# 
   711  029B                     	;# 
   712  029C                     	;# 
   713  029C                     	;# 
   714  029D                     	;# 
   715  029E                     	;# 
   716  029F                     	;# 
   717  0311                     	;# 
   718  0311                     	;# 
   719  0312                     	;# 
   720  0313                     	;# 
   721  0314                     	;# 
   722  0315                     	;# 
   723  0315                     	;# 
   724  0316                     	;# 
   725  0318                     	;# 
   726  0318                     	;# 
   727  0319                     	;# 
   728  031A                     	;# 
   729  031C                     	;# 
   730  031C                     	;# 
   731  031D                     	;# 
   732  031E                     	;# 
   733  0394                     	;# 
   734  0395                     	;# 
   735  0396                     	;# 
   736  0415                     	;# 
   737  0416                     	;# 
   738  0417                     	;# 
   739  041C                     	;# 
   740  041D                     	;# 
   741  041E                     	;# 
   742  0791                     	;# 
   743  0792                     	;# 
   744  0793                     	;# 
   745  0794                     	;# 
   746  0795                     	;# 
   747  0798                     	;# 
   748  0799                     	;# 
   749  079A                     	;# 
   750  07A0                     	;# 
   751  07A1                     	;# 
   752  07A2                     	;# 
   753  07A3                     	;# 
   754  07A4                     	;# 
   755  07A5                     	;# 
   756  07A6                     	;# 
   757  07A7                     	;# 
   758  07A8                     	;# 
   759  07A9                     	;# 
   760  07AA                     	;# 
   761  07AB                     	;# 
   762  0FE4                     	;# 
   763  0FE5                     	;# 
   764  0FE6                     	;# 
   765  0FE7                     	;# 
   766  0FE8                     	;# 
   767  0FE9                     	;# 
   768  0FEA                     	;# 
   769  0FEB                     	;# 
   770  0FED                     	;# 
   771  0FEE                     	;# 
   772  0FEF                     	;# 
   773  0000                     	;# 
   774  0001                     	;# 
   775  0002                     	;# 
   776  0003                     	;# 
   777  0004                     	;# 
   778  0005                     	;# 
   779  0006                     	;# 
   780  0007                     	;# 
   781  0008                     	;# 
   782  0009                     	;# 
   783  000A                     	;# 
   784  000B                     	;# 
   785  000C                     	;# 
   786  000D                     	;# 
   787  000E                     	;# 
   788  000F                     	;# 
   789  0010                     	;# 
   790  0011                     	;# 
   791  0012                     	;# 
   792  0013                     	;# 
   793  0015                     	;# 
   794  0016                     	;# 
   795  0016                     	;# 
   796  0017                     	;# 
   797  0018                     	;# 
   798  0019                     	;# 
   799  001A                     	;# 
   800  001B                     	;# 
   801  001C                     	;# 
   802  001E                     	;# 
   803  001F                     	;# 
   804  008C                     	;# 
   805  008D                     	;# 
   806  008E                     	;# 
   807  008F                     	;# 
   808  0090                     	;# 
   809  0091                     	;# 
   810  0092                     	;# 
   811  0093                     	;# 
   812  0095                     	;# 
   813  0096                     	;# 
   814  0097                     	;# 
   815  0098                     	;# 
   816  0099                     	;# 
   817  009A                     	;# 
   818  009B                     	;# 
   819  009B                     	;# 
   820  009C                     	;# 
   821  009D                     	;# 
   822  009E                     	;# 
   823  010C                     	;# 
   824  010D                     	;# 
   825  010E                     	;# 
   826  010F                     	;# 
   827  0110                     	;# 
   828  0111                     	;# 
   829  0112                     	;# 
   830  0113                     	;# 
   831  0114                     	;# 
   832  0115                     	;# 
   833  0116                     	;# 
   834  0117                     	;# 
   835  0118                     	;# 
   836  0119                     	;# 
   837  011A                     	;# 
   838  011B                     	;# 
   839  011D                     	;# 
   840  018C                     	;# 
   841  018D                     	;# 
   842  018F                     	;# 
   843  0190                     	;# 
   844  0191                     	;# 
   845  0191                     	;# 
   846  0192                     	;# 
   847  0193                     	;# 
   848  0193                     	;# 
   849  0193                     	;# 
   850  0194                     	;# 
   851  0195                     	;# 
   852  0196                     	;# 
   853  0199                     	;# 
   854  019A                     	;# 
   855  019B                     	;# 
   856  019B                     	;# 
   857  019B                     	;# 
   858  019B                     	;# 
   859  019C                     	;# 
   860  019C                     	;# 
   861  019D                     	;# 
   862  019E                     	;# 
   863  019F                     	;# 
   864  020D                     	;# 
   865  0210                     	;# 
   866  0211                     	;# 
   867  0212                     	;# 
   868  0213                     	;# 
   869  0214                     	;# 
   870  0215                     	;# 
   871  0215                     	;# 
   872  0216                     	;# 
   873  0217                     	;# 
   874  0291                     	;# 
   875  0291                     	;# 
   876  0292                     	;# 
   877  0293                     	;# 
   878  0294                     	;# 
   879  0295                     	;# 
   880  0295                     	;# 
   881  0296                     	;# 
   882  0298                     	;# 
   883  0298                     	;# 
   884  0299                     	;# 
   885  029A                     	;# 
   886  029B                     	;# 
   887  029C                     	;# 
   888  029C                     	;# 
   889  029D                     	;# 
   890  029E                     	;# 
   891  029F                     	;# 
   892  0311                     	;# 
   893  0311                     	;# 
   894  0312                     	;# 
   895  0313                     	;# 
   896  0314                     	;# 
   897  0315                     	;# 
   898  0315                     	;# 
   899  0316                     	;# 
   900  0318                     	;# 
   901  0318                     	;# 
   902  0319                     	;# 
   903  031A                     	;# 
   904  031C                     	;# 
   905  031C                     	;# 
   906  031D                     	;# 
   907  031E                     	;# 
   908  0394                     	;# 
   909  0395                     	;# 
   910  0396                     	;# 
   911  0415                     	;# 
   912  0416                     	;# 
   913  0417                     	;# 
   914  041C                     	;# 
   915  041D                     	;# 
   916  041E                     	;# 
   917  0791                     	;# 
   918  0792                     	;# 
   919  0793                     	;# 
   920  0794                     	;# 
   921  0795                     	;# 
   922  0798                     	;# 
   923  0799                     	;# 
   924  079A                     	;# 
   925  07A0                     	;# 
   926  07A1                     	;# 
   927  07A2                     	;# 
   928  07A3                     	;# 
   929  07A4                     	;# 
   930  07A5                     	;# 
   931  07A6                     	;# 
   932  07A7                     	;# 
   933  07A8                     	;# 
   934  07A9                     	;# 
   935  07AA                     	;# 
   936  07AB                     	;# 
   937  0FE4                     	;# 
   938  0FE5                     	;# 
   939  0FE6                     	;# 
   940  0FE7                     	;# 
   941  0FE8                     	;# 
   942  0FE9                     	;# 
   943  0FEA                     	;# 
   944  0FEB                     	;# 
   945  0FED                     	;# 
   946  0FEE                     	;# 
   947  0FEF                     	;# 
   948  0000                     	;# 
   949  0001                     	;# 
   950  0002                     	;# 
   951  0003                     	;# 
   952  0004                     	;# 
   953  0005                     	;# 
   954  0006                     	;# 
   955  0007                     	;# 
   956  0008                     	;# 
   957  0009                     	;# 
   958  000A                     	;# 
   959  000B                     	;# 
   960  000C                     	;# 
   961  000D                     	;# 
   962  000E                     	;# 
   963  000F                     	;# 
   964  0010                     	;# 
   965  0011                     	;# 
   966  0012                     	;# 
   967  0013                     	;# 
   968  0015                     	;# 
   969  0016                     	;# 
   970  0016                     	;# 
   971  0017                     	;# 
   972  0018                     	;# 
   973  0019                     	;# 
   974  001A                     	;# 
   975  001B                     	;# 
   976  001C                     	;# 
   977  001E                     	;# 
   978  001F                     	;# 
   979  008C                     	;# 
   980  008D                     	;# 
   981  008E                     	;# 
   982  008F                     	;# 
   983  0090                     	;# 
   984  0091                     	;# 
   985  0092                     	;# 
   986  0093                     	;# 
   987  0095                     	;# 
   988  0096                     	;# 
   989  0097                     	;# 
   990  0098                     	;# 
   991  0099                     	;# 
   992  009A                     	;# 
   993  009B                     	;# 
   994  009B                     	;# 
   995  009C                     	;# 
   996  009D                     	;# 
   997  009E                     	;# 
   998  010C                     	;# 
   999  010D                     	;# 
  1000  010E                     	;# 
  1001  010F                     	;# 
  1002  0110                     	;# 
  1003  0111                     	;# 
  1004  0112                     	;# 
  1005  0113                     	;# 
  1006  0114                     	;# 
  1007  0115                     	;# 
  1008  0116                     	;# 
  1009  0117                     	;# 
  1010  0118                     	;# 
  1011  0119                     	;# 
  1012  011A                     	;# 
  1013  011B                     	;# 
  1014  011D                     	;# 
  1015  018C                     	;# 
  1016  018D                     	;# 
  1017  018F                     	;# 
  1018  0190                     	;# 
  1019  0191                     	;# 
  1020  0191                     	;# 
  1021  0192                     	;# 
  1022  0193                     	;# 
  1023  0193                     	;# 
  1024  0193                     	;# 
  1025  0194                     	;# 
  1026  0195                     	;# 
  1027  0196                     	;# 
  1028  0199                     	;# 
  1029  019A                     	;# 
  1030  019B                     	;# 
  1031  019B                     	;# 
  1032  019B                     	;# 
  1033  019B                     	;# 
  1034  019C                     	;# 
  1035  019C                     	;# 
  1036  019D                     	;# 
  1037  019E                     	;# 
  1038  019F                     	;# 
  1039  020D                     	;# 
  1040  0210                     	;# 
  1041  0211                     	;# 
  1042  0212                     	;# 
  1043  0213                     	;# 
  1044  0214                     	;# 
  1045  0215                     	;# 
  1046  0215                     	;# 
  1047  0216                     	;# 
  1048  0217                     	;# 
  1049  0291                     	;# 
  1050  0291                     	;# 
  1051  0292                     	;# 
  1052  0293                     	;# 
  1053  0294                     	;# 
  1054  0295                     	;# 
  1055  0295                     	;# 
  1056  0296                     	;# 
  1057  0298                     	;# 
  1058  0298                     	;# 
  1059  0299                     	;# 
  1060  029A                     	;# 
  1061  029B                     	;# 
  1062  029C                     	;# 
  1063  029C                     	;# 
  1064  029D                     	;# 
  1065  029E                     	;# 
  1066  029F                     	;# 
  1067  0311                     	;# 
  1068  0311                     	;# 
  1069  0312                     	;# 
  1070  0313                     	;# 
  1071  0314                     	;# 
  1072  0315                     	;# 
  1073  0315                     	;# 
  1074  0316                     	;# 
  1075  0318                     	;# 
  1076  0318                     	;# 
  1077  0319                     	;# 
  1078  031A                     	;# 
  1079  031C                     	;# 
  1080  031C                     	;# 
  1081  031D                     	;# 
  1082  031E                     	;# 
  1083  0394                     	;# 
  1084  0395                     	;# 
  1085  0396                     	;# 
  1086  0415                     	;# 
  1087  0416                     	;# 
  1088  0417                     	;# 
  1089  041C                     	;# 
  1090  041D                     	;# 
  1091  041E                     	;# 
  1092  0791                     	;# 
  1093  0792                     	;# 
  1094  0793                     	;# 
  1095  0794                     	;# 
  1096  0795                     	;# 
  1097  0798                     	;# 
  1098  0799                     	;# 
  1099  079A                     	;# 
  1100  07A0                     	;# 
  1101  07A1                     	;# 
  1102  07A2                     	;# 
  1103  07A3                     	;# 
  1104  07A4                     	;# 
  1105  07A5                     	;# 
  1106  07A6                     	;# 
  1107  07A7                     	;# 
  1108  07A8                     	;# 
  1109  07A9                     	;# 
  1110  07AA                     	;# 
  1111  07AB                     	;# 
  1112  0FE4                     	;# 
  1113  0FE5                     	;# 
  1114  0FE6                     	;# 
  1115  0FE7                     	;# 
  1116  0FE8                     	;# 
  1117  0FE9                     	;# 
  1118  0FEA                     	;# 
  1119  0FEB                     	;# 
  1120  0FED                     	;# 
  1121  0FEE                     	;# 
  1122  0FEF                     	;# 
  1123  0000                     	;# 
  1124  0001                     	;# 
  1125  0002                     	;# 
  1126  0003                     	;# 
  1127  0004                     	;# 
  1128  0005                     	;# 
  1129  0006                     	;# 
  1130  0007                     	;# 
  1131  0008                     	;# 
  1132  0009                     	;# 
  1133  000A                     	;# 
  1134  000B                     	;# 
  1135  000C                     	;# 
  1136  000D                     	;# 
  1137  000E                     	;# 
  1138  000F                     	;# 
  1139  0010                     	;# 
  1140  0011                     	;# 
  1141  0012                     	;# 
  1142  0013                     	;# 
  1143  0015                     	;# 
  1144  0016                     	;# 
  1145  0016                     	;# 
  1146  0017                     	;# 
  1147  0018                     	;# 
  1148  0019                     	;# 
  1149  001A                     	;# 
  1150  001B                     	;# 
  1151  001C                     	;# 
  1152  001E                     	;# 
  1153  001F                     	;# 
  1154  008C                     	;# 
  1155  008D                     	;# 
  1156  008E                     	;# 
  1157  008F                     	;# 
  1158  0090                     	;# 
  1159  0091                     	;# 
  1160  0092                     	;# 
  1161  0093                     	;# 
  1162  0095                     	;# 
  1163  0096                     	;# 
  1164  0097                     	;# 
  1165  0098                     	;# 
  1166  0099                     	;# 
  1167  009A                     	;# 
  1168  009B                     	;# 
  1169  009B                     	;# 
  1170  009C                     	;# 
  1171  009D                     	;# 
  1172  009E                     	;# 
  1173  010C                     	;# 
  1174  010D                     	;# 
  1175  010E                     	;# 
  1176  010F                     	;# 
  1177  0110                     	;# 
  1178  0111                     	;# 
  1179  0112                     	;# 
  1180  0113                     	;# 
  1181  0114                     	;# 
  1182  0115                     	;# 
  1183  0116                     	;# 
  1184  0117                     	;# 
  1185  0118                     	;# 
  1186  0119                     	;# 
  1187  011A                     	;# 
  1188  011B                     	;# 
  1189  011D                     	;# 
  1190  018C                     	;# 
  1191  018D                     	;# 
  1192  018F                     	;# 
  1193  0190                     	;# 
  1194  0191                     	;# 
  1195  0191                     	;# 
  1196  0192                     	;# 
  1197  0193                     	;# 
  1198  0193                     	;# 
  1199  0193                     	;# 
  1200  0194                     	;# 
  1201  0195                     	;# 
  1202  0196                     	;# 
  1203  0199                     	;# 
  1204  019A                     	;# 
  1205  019B                     	;# 
  1206  019B                     	;# 
  1207  019B                     	;# 
  1208  019B                     	;# 
  1209  019C                     	;# 
  1210  019C                     	;# 
  1211  019D                     	;# 
  1212  019E                     	;# 
  1213  019F                     	;# 
  1214  020D                     	;# 
  1215  0210                     	;# 
  1216  0211                     	;# 
  1217  0212                     	;# 
  1218  0213                     	;# 
  1219  0214                     	;# 
  1220  0215                     	;# 
  1221  0215                     	;# 
  1222  0216                     	;# 
  1223  0217                     	;# 
  1224  0291                     	;# 
  1225  0291                     	;# 
  1226  0292                     	;# 
  1227  0293                     	;# 
  1228  0294                     	;# 
  1229  0295                     	;# 
  1230  0295                     	;# 
  1231  0296                     	;# 
  1232  0298                     	;# 
  1233  0298                     	;# 
  1234  0299                     	;# 
  1235  029A                     	;# 
  1236  029B                     	;# 
  1237  029C                     	;# 
  1238  029C                     	;# 
  1239  029D                     	;# 
  1240  029E                     	;# 
  1241  029F                     	;# 
  1242  0311                     	;# 
  1243  0311                     	;# 
  1244  0312                     	;# 
  1245  0313                     	;# 
  1246  0314                     	;# 
  1247  0315                     	;# 
  1248  0315                     	;# 
  1249  0316                     	;# 
  1250  0318                     	;# 
  1251  0318                     	;# 
  1252  0319                     	;# 
  1253  031A                     	;# 
  1254  031C                     	;# 
  1255  031C                     	;# 
  1256  031D                     	;# 
  1257  031E                     	;# 
  1258  0394                     	;# 
  1259  0395                     	;# 
  1260  0396                     	;# 
  1261  0415                     	;# 
  1262  0416                     	;# 
  1263  0417                     	;# 
  1264  041C                     	;# 
  1265  041D                     	;# 
  1266  041E                     	;# 
  1267  0791                     	;# 
  1268  0792                     	;# 
  1269  0793                     	;# 
  1270  0794                     	;# 
  1271  0795                     	;# 
  1272  0798                     	;# 
  1273  0799                     	;# 
  1274  079A                     	;# 
  1275  07A0                     	;# 
  1276  07A1                     	;# 
  1277  07A2                     	;# 
  1278  07A3                     	;# 
  1279  07A4                     	;# 
  1280  07A5                     	;# 
  1281  07A6                     	;# 
  1282  07A7                     	;# 
  1283  07A8                     	;# 
  1284  07A9                     	;# 
  1285  07AA                     	;# 
  1286  07AB                     	;# 
  1287  0FE4                     	;# 
  1288  0FE5                     	;# 
  1289  0FE6                     	;# 
  1290  0FE7                     	;# 
  1291  0FE8                     	;# 
  1292  0FE9                     	;# 
  1293  0FEA                     	;# 
  1294  0FEB                     	;# 
  1295  0FED                     	;# 
  1296  0FEE                     	;# 
  1297  0FEF                     	;# 
  1298  0000                     	;# 
  1299  0001                     	;# 
  1300  0002                     	;# 
  1301  0003                     	;# 
  1302  0004                     	;# 
  1303  0005                     	;# 
  1304  0006                     	;# 
  1305  0007                     	;# 
  1306  0008                     	;# 
  1307  0009                     	;# 
  1308  000A                     	;# 
  1309  000B                     	;# 
  1310  000C                     	;# 
  1311  000D                     	;# 
  1312  000E                     	;# 
  1313  000F                     	;# 
  1314  0010                     	;# 
  1315  0011                     	;# 
  1316  0012                     	;# 
  1317  0013                     	;# 
  1318  0015                     	;# 
  1319  0016                     	;# 
  1320  0016                     	;# 
  1321  0017                     	;# 
  1322  0018                     	;# 
  1323  0019                     	;# 
  1324  001A                     	;# 
  1325  001B                     	;# 
  1326  001C                     	;# 
  1327  001E                     	;# 
  1328  001F                     	;# 
  1329  008C                     	;# 
  1330  008D                     	;# 
  1331  008E                     	;# 
  1332  008F                     	;# 
  1333  0090                     	;# 
  1334  0091                     	;# 
  1335  0092                     	;# 
  1336  0093                     	;# 
  1337  0095                     	;# 
  1338  0096                     	;# 
  1339  0097                     	;# 
  1340  0098                     	;# 
  1341  0099                     	;# 
  1342  009A                     	;# 
  1343  009B                     	;# 
  1344  009B                     	;# 
  1345  009C                     	;# 
  1346  009D                     	;# 
  1347  009E                     	;# 
  1348  010C                     	;# 
  1349  010D                     	;# 
  1350  010E                     	;# 
  1351  010F                     	;# 
  1352  0110                     	;# 
  1353  0111                     	;# 
  1354  0112                     	;# 
  1355  0113                     	;# 
  1356  0114                     	;# 
  1357  0115                     	;# 
  1358  0116                     	;# 
  1359  0117                     	;# 
  1360  0118                     	;# 
  1361  0119                     	;# 
  1362  011A                     	;# 
  1363  011B                     	;# 
  1364  011D                     	;# 
  1365  018C                     	;# 
  1366  018D                     	;# 
  1367  018F                     	;# 
  1368  0190                     	;# 
  1369  0191                     	;# 
  1370  0191                     	;# 
  1371  0192                     	;# 
  1372  0193                     	;# 
  1373  0193                     	;# 
  1374  0193                     	;# 
  1375  0194                     	;# 
  1376  0195                     	;# 
  1377  0196                     	;# 
  1378  0199                     	;# 
  1379  019A                     	;# 
  1380  019B                     	;# 
  1381  019B                     	;# 
  1382  019B                     	;# 
  1383  019B                     	;# 
  1384  019C                     	;# 
  1385  019C                     	;# 
  1386  019D                     	;# 
  1387  019E                     	;# 
  1388  019F                     	;# 
  1389  020D                     	;# 
  1390  0210                     	;# 
  1391  0211                     	;# 
  1392  0212                     	;# 
  1393  0213                     	;# 
  1394  0214                     	;# 
  1395  0215                     	;# 
  1396  0215                     	;# 
  1397  0216                     	;# 
  1398  0217                     	;# 
  1399  0291                     	;# 
  1400  0291                     	;# 
  1401  0292                     	;# 
  1402  0293                     	;# 
  1403  0294                     	;# 
  1404  0295                     	;# 
  1405  0295                     	;# 
  1406  0296                     	;# 
  1407  0298                     	;# 
  1408  0298                     	;# 
  1409  0299                     	;# 
  1410  029A                     	;# 
  1411  029B                     	;# 
  1412  029C                     	;# 
  1413  029C                     	;# 
  1414  029D                     	;# 
  1415  029E                     	;# 
  1416  029F                     	;# 
  1417  0311                     	;# 
  1418  0311                     	;# 
  1419  0312                     	;# 
  1420  0313                     	;# 
  1421  0314                     	;# 
  1422  0315                     	;# 
  1423  0315                     	;# 
  1424  0316                     	;# 
  1425  0318                     	;# 
  1426  0318                     	;# 
  1427  0319                     	;# 
  1428  031A                     	;# 
  1429  031C                     	;# 
  1430  031C                     	;# 
  1431  031D                     	;# 
  1432  031E                     	;# 
  1433  0394                     	;# 
  1434  0395                     	;# 
  1435  0396                     	;# 
  1436  0415                     	;# 
  1437  0416                     	;# 
  1438  0417                     	;# 
  1439  041C                     	;# 
  1440  041D                     	;# 
  1441  041E                     	;# 
  1442  0791                     	;# 
  1443  0792                     	;# 
  1444  0793                     	;# 
  1445  0794                     	;# 
  1446  0795                     	;# 
  1447  0798                     	;# 
  1448  0799                     	;# 
  1449  079A                     	;# 
  1450  07A0                     	;# 
  1451  07A1                     	;# 
  1452  07A2                     	;# 
  1453  07A3                     	;# 
  1454  07A4                     	;# 
  1455  07A5                     	;# 
  1456  07A6                     	;# 
  1457  07A7                     	;# 
  1458  07A8                     	;# 
  1459  07A9                     	;# 
  1460  07AA                     	;# 
  1461  07AB                     	;# 
  1462  0FE4                     	;# 
  1463  0FE5                     	;# 
  1464  0FE6                     	;# 
  1465  0FE7                     	;# 
  1466  0FE8                     	;# 
  1467  0FE9                     	;# 
  1468  0FEA                     	;# 
  1469  0FEB                     	;# 
  1470  0FED                     	;# 
  1471  0FEE                     	;# 
  1472  0FEF                     	;# 
  1473  0000                     	;# 
  1474  0001                     	;# 
  1475  0002                     	;# 
  1476  0003                     	;# 
  1477  0004                     	;# 
  1478  0005                     	;# 
  1479  0006                     	;# 
  1480  0007                     	;# 
  1481  0008                     	;# 
  1482  0009                     	;# 
  1483  000A                     	;# 
  1484  000B                     	;# 
  1485  000C                     	;# 
  1486  000D                     	;# 
  1487  000E                     	;# 
  1488  000F                     	;# 
  1489  0010                     	;# 
  1490  0011                     	;# 
  1491  0012                     	;# 
  1492  0013                     	;# 
  1493  0015                     	;# 
  1494  0016                     	;# 
  1495  0016                     	;# 
  1496  0017                     	;# 
  1497  0018                     	;# 
  1498  0019                     	;# 
  1499  001A                     	;# 
  1500  001B                     	;# 
  1501  001C                     	;# 
  1502  001E                     	;# 
  1503  001F                     	;# 
  1504  008C                     	;# 
  1505  008D                     	;# 
  1506  008E                     	;# 
  1507  008F                     	;# 
  1508  0090                     	;# 
  1509  0091                     	;# 
  1510  0092                     	;# 
  1511  0093                     	;# 
  1512  0095                     	;# 
  1513  0096                     	;# 
  1514  0097                     	;# 
  1515  0098                     	;# 
  1516  0099                     	;# 
  1517  009A                     	;# 
  1518  009B                     	;# 
  1519  009B                     	;# 
  1520  009C                     	;# 
  1521  009D                     	;# 
  1522  009E                     	;# 
  1523  010C                     	;# 
  1524  010D                     	;# 
  1525  010E                     	;# 
  1526  010F                     	;# 
  1527  0110                     	;# 
  1528  0111                     	;# 
  1529  0112                     	;# 
  1530  0113                     	;# 
  1531  0114                     	;# 
  1532  0115                     	;# 
  1533  0116                     	;# 
  1534  0117                     	;# 
  1535  0118                     	;# 
  1536  0119                     	;# 
  1537  011A                     	;# 
  1538  011B                     	;# 
  1539  011D                     	;# 
  1540  018C                     	;# 
  1541  018D                     	;# 
  1542  018F                     	;# 
  1543  0190                     	;# 
  1544  0191                     	;# 
  1545  0191                     	;# 
  1546  0192                     	;# 
  1547  0193                     	;# 
  1548  0193                     	;# 
  1549  0193                     	;# 
  1550  0194                     	;# 
  1551  0195                     	;# 
  1552  0196                     	;# 
  1553  0199                     	;# 
  1554  019A                     	;# 
  1555  019B                     	;# 
  1556  019B                     	;# 
  1557  019B                     	;# 
  1558  019B                     	;# 
  1559  019C                     	;# 
  1560  019C                     	;# 
  1561  019D                     	;# 
  1562  019E                     	;# 
  1563  019F                     	;# 
  1564  020D                     	;# 
  1565  0210                     	;# 
  1566  0211                     	;# 
  1567  0212                     	;# 
  1568  0213                     	;# 
  1569  0214                     	;# 
  1570  0215                     	;# 
  1571  0215                     	;# 
  1572  0216                     	;# 
  1573  0217                     	;# 
  1574  0291                     	;# 
  1575  0291                     	;# 
  1576  0292                     	;# 
  1577  0293                     	;# 
  1578  0294                     	;# 
  1579  0295                     	;# 
  1580  0295                     	;# 
  1581  0296                     	;# 
  1582  0298                     	;# 
  1583  0298                     	;# 
  1584  0299                     	;# 
  1585  029A                     	;# 
  1586  029B                     	;# 
  1587  029C                     	;# 
  1588  029C                     	;# 
  1589  029D                     	;# 
  1590  029E                     	;# 
  1591  029F                     	;# 
  1592  0311                     	;# 
  1593  0311                     	;# 
  1594  0312                     	;# 
  1595  0313                     	;# 
  1596  0314                     	;# 
  1597  0315                     	;# 
  1598  0315                     	;# 
  1599  0316                     	;# 
  1600  0318                     	;# 
  1601  0318                     	;# 
  1602  0319                     	;# 
  1603  031A                     	;# 
  1604  031C                     	;# 
  1605  031C                     	;# 
  1606  031D                     	;# 
  1607  031E                     	;# 
  1608  0394                     	;# 
  1609  0395                     	;# 
  1610  0396                     	;# 
  1611  0415                     	;# 
  1612  0416                     	;# 
  1613  0417                     	;# 
  1614  041C                     	;# 
  1615  041D                     	;# 
  1616  041E                     	;# 
  1617  0791                     	;# 
  1618  0792                     	;# 
  1619  0793                     	;# 
  1620  0794                     	;# 
  1621  0795                     	;# 
  1622  0798                     	;# 
  1623  0799                     	;# 
  1624  079A                     	;# 
  1625  07A0                     	;# 
  1626  07A1                     	;# 
  1627  07A2                     	;# 
  1628  07A3                     	;# 
  1629  07A4                     	;# 
  1630  07A5                     	;# 
  1631  07A6                     	;# 
  1632  07A7                     	;# 
  1633  07A8                     	;# 
  1634  07A9                     	;# 
  1635  07AA                     	;# 
  1636  07AB                     	;# 
  1637  0FE4                     	;# 
  1638  0FE5                     	;# 
  1639  0FE6                     	;# 
  1640  0FE7                     	;# 
  1641  0FE8                     	;# 
  1642  0FE9                     	;# 
  1643  0FEA                     	;# 
  1644  0FEB                     	;# 
  1645  0FED                     	;# 
  1646  0FEE                     	;# 
  1647  0FEF                     	;# 
  1648  0000                     	;# 
  1649  0001                     	;# 
  1650  0002                     	;# 
  1651  0003                     	;# 
  1652  0004                     	;# 
  1653  0005                     	;# 
  1654  0006                     	;# 
  1655  0007                     	;# 
  1656  0008                     	;# 
  1657  0009                     	;# 
  1658  000A                     	;# 
  1659  000B                     	;# 
  1660  000C                     	;# 
  1661  000D                     	;# 
  1662  000E                     	;# 
  1663  000F                     	;# 
  1664  0010                     	;# 
  1665  0011                     	;# 
  1666  0012                     	;# 
  1667  0013                     	;# 
  1668  0015                     	;# 
  1669  0016                     	;# 
  1670  0016                     	;# 
  1671  0017                     	;# 
  1672  0018                     	;# 
  1673  0019                     	;# 
  1674  001A                     	;# 
  1675  001B                     	;# 
  1676  001C                     	;# 
  1677  001E                     	;# 
  1678  001F                     	;# 
  1679  008C                     	;# 
  1680  008D                     	;# 
  1681  008E                     	;# 
  1682  008F                     	;# 
  1683  0090                     	;# 
  1684  0091                     	;# 
  1685  0092                     	;# 
  1686  0093                     	;# 
  1687  0095                     	;# 
  1688  0096                     	;# 
  1689  0097                     	;# 
  1690  0098                     	;# 
  1691  0099                     	;# 
  1692  009A                     	;# 
  1693  009B                     	;# 
  1694  009B                     	;# 
  1695  009C                     	;# 
  1696  009D                     	;# 
  1697  009E                     	;# 
  1698  010C                     	;# 
  1699  010D                     	;# 
  1700  010E                     	;# 
  1701  010F                     	;# 
  1702  0110                     	;# 
  1703  0111                     	;# 
  1704  0112                     	;# 
  1705  0113                     	;# 
  1706  0114                     	;# 
  1707  0115                     	;# 
  1708  0116                     	;# 
  1709  0117                     	;# 
  1710  0118                     	;# 
  1711  0119                     	;# 
  1712  011A                     	;# 
  1713  011B                     	;# 
  1714  011D                     	;# 
  1715  018C                     	;# 
  1716  018D                     	;# 
  1717  018F                     	;# 
  1718  0190                     	;# 
  1719  0191                     	;# 
  1720  0191                     	;# 
  1721  0192                     	;# 
  1722  0193                     	;# 
  1723  0193                     	;# 
  1724  0193                     	;# 
  1725  0194                     	;# 
  1726  0195                     	;# 
  1727  0196                     	;# 
  1728  0199                     	;# 
  1729  019A                     	;# 
  1730  019B                     	;# 
  1731  019B                     	;# 
  1732  019B                     	;# 
  1733  019B                     	;# 
  1734  019C                     	;# 
  1735  019C                     	;# 
  1736  019D                     	;# 
  1737  019E                     	;# 
  1738  019F                     	;# 
  1739  020D                     	;# 
  1740  0210                     	;# 
  1741  0211                     	;# 
  1742  0212                     	;# 
  1743  0213                     	;# 
  1744  0214                     	;# 
  1745  0215                     	;# 
  1746  0215                     	;# 
  1747  0216                     	;# 
  1748  0217                     	;# 
  1749  0291                     	;# 
  1750  0291                     	;# 
  1751  0292                     	;# 
  1752  0293                     	;# 
  1753  0294                     	;# 
  1754  0295                     	;# 
  1755  0295                     	;# 
  1756  0296                     	;# 
  1757  0298                     	;# 
  1758  0298                     	;# 
  1759  0299                     	;# 
  1760  029A                     	;# 
  1761  029B                     	;# 
  1762  029C                     	;# 
  1763  029C                     	;# 
  1764  029D                     	;# 
  1765  029E                     	;# 
  1766  029F                     	;# 
  1767  0311                     	;# 
  1768  0311                     	;# 
  1769  0312                     	;# 
  1770  0313                     	;# 
  1771  0314                     	;# 
  1772  0315                     	;# 
  1773  0315                     	;# 
  1774  0316                     	;# 
  1775  0318                     	;# 
  1776  0318                     	;# 
  1777  0319                     	;# 
  1778  031A                     	;# 
  1779  031C                     	;# 
  1780  031C                     	;# 
  1781  031D                     	;# 
  1782  031E                     	;# 
  1783  0394                     	;# 
  1784  0395                     	;# 
  1785  0396                     	;# 
  1786  0415                     	;# 
  1787  0416                     	;# 
  1788  0417                     	;# 
  1789  041C                     	;# 
  1790  041D                     	;# 
  1791  041E                     	;# 
  1792  0791                     	;# 
  1793  0792                     	;# 
  1794  0793                     	;# 
  1795  0794                     	;# 
  1796  0795                     	;# 
  1797  0798                     	;# 
  1798  0799                     	;# 
  1799  079A                     	;# 
  1800  07A0                     	;# 
  1801  07A1                     	;# 
  1802  07A2                     	;# 
  1803  07A3                     	;# 
  1804  07A4                     	;# 
  1805  07A5                     	;# 
  1806  07A6                     	;# 
  1807  07A7                     	;# 
  1808  07A8                     	;# 
  1809  07A9                     	;# 
  1810  07AA                     	;# 
  1811  07AB                     	;# 
  1812  0FE4                     	;# 
  1813  0FE5                     	;# 
  1814  0FE6                     	;# 
  1815  0FE7                     	;# 
  1816  0FE8                     	;# 
  1817  0FE9                     	;# 
  1818  0FEA                     	;# 
  1819  0FEB                     	;# 
  1820  0FED                     	;# 
  1821  0FEE                     	;# 
  1822  0FEF                     	;# 
  1823                           
  1824 ;; Function _rd1RegCompleteHandler is unused but had its address taken
  1825  0000                     
  1826 ;; Function _rd2RegCompleteHandler is unused but had its address taken
  1827  0000                     
  1828 ;; Function _wr1RegCompleteHandler is unused but had its address taken
  1829  0000                     
  1830 ;; Function _wr2RegCompleteHandler is unused but had its address taken
  1831  0000                     
  1832 ;; Function _rdBlkRegCompleteHandler is unused but had its address taken
  1833  0000                     
  1834 ;; Function _I2C_DO_IDLE is unused but had its address taken
  1835  0000                     
  1836 ;; Function _I2C_DO_SEND_ADR_READ is unused but had its address taken
  1837  0000                     
  1838 ;; Function _I2C_DO_SEND_ADR_WRITE is unused but had its address taken
  1839  0000                     
  1840 ;; Function _I2C_DO_TX is unused but had its address taken
  1841  0000                     
  1842 ;; Function _I2C_DO_RX is unused but had its address taken
  1843  0000                     
  1844 ;; Function _I2C_DO_RCEN is unused but had its address taken
  1845  0000                     
  1846 ;; Function _I2C_DO_TX_EMPTY is unused but had its address taken
  1847  0000                     
  1848 ;; Function _I2C_DO_SEND_RESTART_READ is unused but had its address taken
  1849  0000                     
  1850 ;; Function _I2C_DO_SEND_RESTART_WRITE is unused but had its address taken
  1851  0000                     
  1852 ;; Function _I2C_DO_SEND_RESTART is unused but had its address taken
  1853  0000                     
  1854 ;; Function _I2C_DO_SEND_STOP is unused but had its address taken
  1855  0000                     
  1856 ;; Function _I2C_DO_RX_ACK is unused but had its address taken
  1857  0000                     
  1858 ;; Function _I2C_DO_RX_NACK_STOP is unused but had its address taken
  1859  0000                     
  1860 ;; Function _I2C_DO_RX_NACK_RESTART is unused but had its address taken
  1861  0000                     
  1862 ;; Function _I2C_DO_RESET is unused but had its address taken
  1863  0000                     
  1864 ;; Function _I2C_DO_ADDRESS_NACK is unused but had its address taken
  1865  0000                     
  1866 ;; Function _I2C_CallbackReturnStop is unused but had its address taken
  1867  0000                     
  1868 ;; Function _I2C_CallbackReturnReset is unused but had its address taken
  1869  0000                     
  1870                           	psect	stringtext1
  1871  01C0                     __pstringtext1:
  1872  01C0                     _i2c_fsmStateTable:
  1873  01C0  3400               	retlw	0
  1874  01C1  3400               	retlw	0
  1875  01C2  3400               	retlw	0
  1876  01C3  3400               	retlw	0
  1877  01C4  3400               	retlw	0
  1878  01C5  3400               	retlw	0
  1879  01C6  3400               	retlw	0
  1880  01C7  3400               	retlw	0
  1881  01C8  3400               	retlw	0
  1882  01C9  3400               	retlw	0
  1883  01CA  3400               	retlw	0
  1884  01CB  3400               	retlw	0
  1885  01CC  3400               	retlw	0
  1886  01CD  3400               	retlw	0
  1887  01CE  3400               	retlw	0
  1888  01CF  3400               	retlw	0
  1889  01D0  3400               	retlw	0
  1890  01D1  3400               	retlw	0
  1891  01D2  3400               	retlw	0
  1892  01D3  3400               	retlw	0
  1893  01D4  3400               	retlw	0
  1894  01D5  3400               	retlw	0
  1895  01D6  3400               	retlw	0
  1896  01D7  3400               	retlw	0
  1897  01D8  3400               	retlw	0
  1898  01D9  3400               	retlw	0
  1899  01DA  3400               	retlw	0
  1900  01DB  3400               	retlw	0
  1901  01DC  3400               	retlw	0
  1902  01DD  3400               	retlw	0
  1903  01DE  3400               	retlw	0
  1904  01DF  3400               	retlw	0
  1905  01E0                     __end_of_i2c_fsmStateTable:
  1906  0019                     _T1GCONbits	set	25
  1907  0018                     _T1CONbits	set	24
  1908  0018                     _T1CON	set	24
  1909  0016                     _TMR1L	set	22
  1910  0017                     _TMR1H	set	23
  1911  0019                     _T1GCON	set	25
  1912  0012                     _PIR2bits	set	18
  1913  0011                     _PIR1bits	set	17
  1914  000B                     _INTCONbits	set	11
  1915  0091                     _PIE1bits	set	145
  1916  0097                     _WDTCON	set	151
  1917  0098                     _OSCTUNE	set	152
  1918  0099                     _OSCCON	set	153
  1919  0095                     _OPTION_REGbits	set	149
  1920  008F                     _TRISD	set	143
  1921  008E                     _TRISC	set	142
  1922  008D                     _TRISB	set	141
  1923  008C                     _TRISA	set	140
  1924  0090                     _TRISE	set	144
  1925  04D6                     _PLLR	set	1238
  1926  010D                     _LATBbits	set	269
  1927  0116                     _BORCON	set	278
  1928  011D                     _APFCON	set	285
  1929  010E                     _LATC	set	270
  1930  010D                     _LATB	set	269
  1931  010C                     _LATA	set	268
  1932  010F                     _LATD	set	271
  1933  0110                     _LATE	set	272
  1934  018C                     _ANSELA	set	396
  1935  0190                     _ANSELE	set	400
  1936  018D                     _ANSELB	set	397
  1937  018F                     _ANSELD	set	399
  1938  0214                     _SSPSTATbits	set	532
  1939  0216                     _SSPCON2bits	set	534
  1940  0211                     _SSPBUF	set	529
  1941  0215                     _SSPCON1bits	set	533
  1942  0212                     _SSPADD	set	530
  1943  0216                     _SSPCON2	set	534
  1944  0215                     _SSPCON1	set	533
  1945  0214                     _SSPSTAT	set	532
  1946  020D                     _WPUB	set	525
  1947  0210                     _WPUE	set	528
  1948                           
  1949                           	psect	cinit
  1950  0047                     start_initialization:	
  1951                           ; #config settings
  1952                           
  1953  0047                     __initialization:
  1954                           
  1955                           ; Clear objects allocated to COMMON
  1956  0047  01F9               	clrf	__pbssCOMMON& (0+127)
  1957  0048  01FA               	clrf	(__pbssCOMMON+1)& (0+127)
  1958  0049  01FB               	clrf	(__pbssCOMMON+2)& (0+127)
  1959  004A  01FC               	clrf	(__pbssCOMMON+3)& (0+127)
  1960  004B  01FD               	clrf	(__pbssCOMMON+4)& (0+127)
  1961                           
  1962                           ; Clear objects allocated to BANK0
  1963  004C  3020               	movlw	low __pbssBANK0
  1964  004D  0084               	movwf	4
  1965  004E  3000               	movlw	high __pbssBANK0
  1966  004F  0085               	movwf	5
  1967  0050  3044               	movlw	68
  1968  0051  3182  2261  3180   	fcall	clear_ram0
  1969                           
  1970                           ; Clear objects allocated to BANK1
  1971  0054  30A0               	movlw	low __pbssBANK1
  1972  0055  0084               	movwf	4
  1973  0056  3000               	movlw	high __pbssBANK1
  1974  0057  0085               	movwf	5
  1975  0058  303E               	movlw	62
  1976  0059  3182  2261  3180   	fcall	clear_ram0
  1977                           
  1978                           ; Clear objects allocated to BANK2
  1979  005C  3020               	movlw	low __pbssBANK2
  1980  005D  0084               	movwf	4
  1981  005E  3001               	movlw	high __pbssBANK2
  1982  005F  0085               	movwf	5
  1983  0060  3040               	movlw	64
  1984  0061  3182  2261  3180   	fcall	clear_ram0
  1985  0064                     end_of_initialization:	
  1986                           ;End of C runtime variable initialization code
  1987                           
  1988  0064                     __end_of__initialization:
  1989  0064  107E               	bcf	int$flags,0	;clear compiler interrupt flag (level 1)
  1990  0065  0020               	movlb	0
  1991  0066  3181  296C         	ljmp	_main	;jump to C main() function
  1992                           
  1993                           	psect	bssCOMMON
  1994  0079                     __pbssCOMMON:
  1995  0079                     _TMR1_InterruptHandler:
  1996  0079                     	ds	2
  1997  007B                     _timer1ReloadVal:
  1998  007B                     	ds	2
  1999  007D                     _status_communication:
  2000  007D                     	ds	1
  2001                           
  2002                           	psect	bssBANK0
  2003  0020                     __pbssBANK0:
  2004  0020                     _BMP180:
  2005  0020                     	ds	34
  2006  0042                     _I2C_Status:
  2007  0042                     	ds	29
  2008  005F                     _INT_InterruptHandler:
  2009  005F                     	ds	2
  2010  0061                     _time_out_timer:
  2011  0061                     	ds	2
  2012  0063                     _flag_turn_on_light:
  2013  0063                     	ds	1
  2014                           
  2015                           	psect	bssBANK1
  2016  00A0                     __pbssBANK1:
  2017  00A0                     _DATA_BMP_180:
  2018  00A0                     	ds	34
  2019  00C2                     get_calibration_data_BMP180@F3861:
  2020  00C2                     	ds	22
  2021  00D8                     get_pressure_BMP180@F3879:
  2022  00D8                     	ds	6
  2023                           
  2024                           	psect	bssBANK2
  2025  0120                     __pbssBANK2:
  2026  0120                     _COLOR_LED:
  2027  0120                     	ds	64
  2028                           
  2029                           	psect	clrtext
  2030  0261                     clear_ram0:	
  2031                           ;	Called with FSR0 containing the base address, and
  2032                           ;	WREG with the size to clear
  2033                           
  2034  0261  0064               	clrwdt	;clear the watchdog before getting into this loop
  2035  0262                     clrloop0:
  2036  0262  0180               	clrf	0	;clear RAM location pointed to by FSR
  2037  0263  3101               	addfsr 0,1
  2038  0264  0B89               	decfsz	9,f	;Have we reached the end of clearing yet?
  2039  0265  2A62               	goto	clrloop0	;have we reached the end yet?
  2040  0266  3400               	retlw	0	;all done for this memory range, return
  2041                           
  2042                           	psect	cstackCOMMON
  2043  0070                     __pcstackCOMMON:
  2044  0070                     ?_I2C_Initialize:
  2045  0070                     ?_OSCILLATOR_Initialize:	
  2046                           ; 1 bytes @ 0x0
  2047                           
  2048  0070                     ?_WDT_Initialize:	
  2049                           ; 1 bytes @ 0x0
  2050                           
  2051  0070                     ?_TMR1_Initialize:	
  2052                           ; 1 bytes @ 0x0
  2053                           
  2054  0070                     ?_EXT_INT_Initialize:	
  2055                           ; 1 bytes @ 0x0
  2056                           
  2057  0070                     ?_INT_ISR:	
  2058                           ; 1 bytes @ 0x0
  2059                           
  2060  0070                     ??_INT_ISR:	
  2061                           ; 1 bytes @ 0x0
  2062                           
  2063  0070                     ?_TMR1_ISR:	
  2064                           ; 1 bytes @ 0x0
  2065                           
  2066  0070                     ?_TMR1_StopTimer:	
  2067                           ; 1 bytes @ 0x0
  2068                           
  2069  0070                     ??_TMR1_StopTimer:	
  2070                           ; 1 bytes @ 0x0
  2071                           
  2072  0070                     ?_TMR1_StartTimer:	
  2073                           ; 1 bytes @ 0x0
  2074                           
  2075  0070                     ?_INT_CallBack:	
  2076                           ; 1 bytes @ 0x0
  2077                           
  2078  0070                     ??_INT_CallBack:	
  2079                           ; 1 bytes @ 0x0
  2080                           
  2081  0070                     ?_TMR1_DefaultInterruptHandler:	
  2082                           ; 1 bytes @ 0x0
  2083                           
  2084  0070                     ??_TMR1_DefaultInterruptHandler:	
  2085                           ; 1 bytes @ 0x0
  2086                           
  2087  0070                     ?_PIN_MANAGER_Initialize:	
  2088                           ; 1 bytes @ 0x0
  2089                           
  2090  0070                     ?_SYSTEM_Initialize:	
  2091                           ; 1 bytes @ 0x0
  2092                           
  2093  0070                     ?_INTERRUPT_InterruptManager:	
  2094                           ; 1 bytes @ 0x0
  2095                           
  2096  0070                     ?_main:	
  2097                           ; 1 bytes @ 0x0
  2098                           
  2099  0070                     ?_INT_DefaultInterruptHandler:	
  2100                           ; 1 bytes @ 0x0
  2101                           
  2102  0070                     ??_INT_DefaultInterruptHandler:	
  2103                           ; 1 bytes @ 0x0
  2104                           
  2105  0070                     ?_TMR1_WriteTimer:	
  2106                           ; 1 bytes @ 0x0
  2107                           
  2108  0070                     ?i1_set_led_color:	
  2109                           ; 1 bytes @ 0x0
  2110                           
  2111  0070                     i1set_led_color@red:	
  2112                           ; 1 bytes @ 0x0
  2113                           
  2114  0070                     TMR1_WriteTimer@timerVal:	
  2115                           ; 1 bytes @ 0x0
  2116                           
  2117                           
  2118                           ; 2 bytes @ 0x0
  2119  0070                     	ds	1
  2120  0071                     i1set_led_color@green:
  2121                           
  2122                           ; 1 bytes @ 0x1
  2123  0071                     	ds	1
  2124  0072                     ??_TMR1_ISR:
  2125  0072                     ??_TMR1_WriteTimer:	
  2126                           ; 1 bytes @ 0x2
  2127                           
  2128  0072                     i1set_led_color@blue:	
  2129                           ; 1 bytes @ 0x2
  2130                           
  2131                           
  2132                           ; 1 bytes @ 0x2
  2133  0072                     	ds	1
  2134  0073                     ??i1_set_led_color:
  2135                           
  2136                           ; 1 bytes @ 0x3
  2137  0073                     	ds	1
  2138  0074                     i1set_led_color@number_led:
  2139                           
  2140                           ; 1 bytes @ 0x4
  2141  0074                     	ds	1
  2142  0075                     i1set_led_color@number_led_choose:
  2143                           
  2144                           ; 1 bytes @ 0x5
  2145  0075                     	ds	1
  2146  0076                     i1set_led_color@i:
  2147                           
  2148                           ; 1 bytes @ 0x6
  2149  0076                     	ds	1
  2150  0077                     i1set_led_color@i_352:
  2151                           
  2152                           ; 1 bytes @ 0x7
  2153  0077                     	ds	1
  2154  0078                     i1set_led_color@i_353:
  2155                           
  2156                           ; 1 bytes @ 0x8
  2157  0078                     	ds	1
  2158  0079                     ??_INTERRUPT_InterruptManager:
  2159                           
  2160                           	psect	cstackBANK0
  2161  0064                     __pcstackBANK0:	
  2162                           ; 1 bytes @ 0x9
  2163                           
  2164  0064                     ??_I2C_Initialize:
  2165  0064                     ??_OSCILLATOR_Initialize:	
  2166                           ; 1 bytes @ 0x0
  2167                           
  2168  0064                     ??_WDT_Initialize:	
  2169                           ; 1 bytes @ 0x0
  2170                           
  2171  0064                     ?_set_led_color:	
  2172                           ; 1 bytes @ 0x0
  2173                           
  2174  0064                     ??_TMR1_StartTimer:	
  2175                           ; 1 bytes @ 0x0
  2176                           
  2177  0064                     ?_TMR1_SetInterruptHandler:	
  2178                           ; 1 bytes @ 0x0
  2179                           
  2180  0064                     ??_PIN_MANAGER_Initialize:	
  2181                           ; 1 bytes @ 0x0
  2182                           
  2183  0064                     ?_INT_SetInterruptHandler:	
  2184                           ; 1 bytes @ 0x0
  2185                           
  2186  0064                     set_led_color@red:	
  2187                           ; 1 bytes @ 0x0
  2188                           
  2189  0064                     INT_SetInterruptHandler@InterruptHandler:	
  2190                           ; 1 bytes @ 0x0
  2191                           
  2192  0064                     TMR1_SetInterruptHandler@InterruptHandler:	
  2193                           ; 2 bytes @ 0x0
  2194                           
  2195                           
  2196                           ; 2 bytes @ 0x0
  2197  0064                     	ds	1
  2198  0065                     set_led_color@green:
  2199                           
  2200                           ; 1 bytes @ 0x1
  2201  0065                     	ds	1
  2202  0066                     ??_TMR1_Initialize:
  2203  0066                     ??_EXT_INT_Initialize:	
  2204                           ; 1 bytes @ 0x2
  2205                           
  2206  0066                     ??_TMR1_SetInterruptHandler:	
  2207                           ; 1 bytes @ 0x2
  2208                           
  2209  0066                     ??_SYSTEM_Initialize:	
  2210                           ; 1 bytes @ 0x2
  2211                           
  2212  0066                     ??_INT_SetInterruptHandler:	
  2213                           ; 1 bytes @ 0x2
  2214                           
  2215  0066                     set_led_color@blue:	
  2216                           ; 1 bytes @ 0x2
  2217                           
  2218                           
  2219                           ; 1 bytes @ 0x2
  2220  0066                     	ds	1
  2221  0067                     ??_set_led_color:
  2222                           
  2223                           ; 1 bytes @ 0x3
  2224  0067                     	ds	1
  2225  0068                     set_led_color@number_led:
  2226                           
  2227                           ; 1 bytes @ 0x4
  2228  0068                     	ds	1
  2229  0069                     set_led_color@number_led_choose:
  2230                           
  2231                           ; 1 bytes @ 0x5
  2232  0069                     	ds	1
  2233  006A                     set_led_color@i:
  2234                           
  2235                           ; 1 bytes @ 0x6
  2236  006A                     	ds	1
  2237  006B                     set_led_color@i_352:
  2238                           
  2239                           ; 1 bytes @ 0x7
  2240  006B                     	ds	1
  2241  006C                     set_led_color@i_353:
  2242                           
  2243                           ; 1 bytes @ 0x8
  2244  006C                     	ds	1
  2245  006D                     ??_main:
  2246                           
  2247                           ; 1 bytes @ 0x9
  2248  006D                     	ds	3
  2249                           
  2250                           	psect	maintext
  2251  016C                     __pmaintext:	
  2252 ;;
  2253 ;;Main: autosize = 0, tempsize = 3, incstack = 0, save=0
  2254 ;;
  2255 ;; *************** function _main *****************
  2256 ;; Defined at:
  2257 ;;		line 94 in file "main.c"
  2258 ;; Parameters:    Size  Location     Type
  2259 ;;		None
  2260 ;; Auto vars:     Size  Location     Type
  2261 ;;		None
  2262 ;; Return value:  Size  Location     Type
  2263 ;;                  1    wreg      void 
  2264 ;; Registers used:
  2265 ;;		wreg, status,2, status,0, pclath, cstack
  2266 ;; Tracked objects:
  2267 ;;		On entry : B1F/0
  2268 ;;		On exit  : 0/0
  2269 ;;		Unchanged: 0/0
  2270 ;; Data sizes:     COMMON   BANK0   BANK1   BANK2   BANK3   BANK4   BANK5   BANK6
  2271 ;;      Params:         0       0       0       0       0       0       0       0
  2272 ;;      Locals:         0       0       0       0       0       0       0       0
  2273 ;;      Temps:          0       3       0       0       0       0       0       0
  2274 ;;      Totals:         0       3       0       0       0       0       0       0
  2275 ;;Total ram usage:        3 bytes
  2276 ;; Hardware stack levels required when called: 7
  2277 ;; This function calls:
  2278 ;;		_SYSTEM_Initialize
  2279 ;;		_TMR1_StartTimer
  2280 ;;		_set_led_color
  2281 ;; This function is called by:
  2282 ;;		Startup code after reset
  2283 ;; This function uses a non-reentrant model
  2284 ;;
  2285                           
  2286  016C                     _main:	
  2287                           ;psect for function _main
  2288                           
  2289  016C                     l2964:	
  2290                           ;incstack = 0
  2291                           ; Regs used in _main: [wreg+status,2+status,0+pclath+cstack]
  2292                           
  2293                           
  2294                           ;main.c: 97:     SYSTEM_Initialize();
  2295  016C  3182  220E  3181   	fcall	_SYSTEM_Initialize
  2296  016F                     l2966:
  2297                           
  2298                           ;main.c: 114:     _delay((unsigned long)((1000)*(32000000/4000.0)));
  2299  016F  3029               	movlw	41
  2300  0170  0020               	movlb	0	; select bank0
  2301  0171  00EE               	movwf	??_main+1
  2302  0172  3096               	movlw	150
  2303  0173  00ED               	movwf	??_main
  2304  0174  307F               	movlw	127
  2305  0175                     u2017:
  2306  0175  0B89               	decfsz	9,f
  2307  0176  2975               	goto	u2017
  2308  0177  0BED               	decfsz	??_main,f
  2309  0178  2975               	goto	u2017
  2310  0179  0BEE               	decfsz	??_main+1,f
  2311  017A  2975               	goto	u2017
  2312  017B                     l2968:
  2313                           
  2314                           ;main.c: 115:     LATBbits.LATB4 = 1;
  2315  017B  0022               	movlb	2	; select bank2
  2316  017C  160D               	bsf	13,4	;volatile
  2317  017D                     l2970:
  2318                           
  2319                           ;main.c: 116:     (INTCONbits.GIE = 1);
  2320  017D  178B               	bsf	11,7	;volatile
  2321  017E                     l2972:
  2322                           
  2323                           ;main.c: 141:     {;main.c: 142:         if(flag_turn_on_light){
  2324  017E  0020               	movlb	0	; select bank0
  2325  017F  0863               	movf	_flag_turn_on_light,w
  2326  0180  1903               	btfsc	3,2
  2327  0181  2983               	goto	u1541
  2328  0182  2984               	goto	u1540
  2329  0183                     u1541:
  2330  0183  297E               	goto	l2972
  2331  0184                     u1540:
  2332  0184                     l2974:
  2333                           
  2334                           ;main.c: 143:             (INTCONbits.GIE = 0);
  2335  0184  138B               	bcf	11,7	;volatile
  2336  0185                     l2976:
  2337                           
  2338                           ;main.c: 144:             set_led_color(16, 255, 255, 255);
  2339  0185  30FF               	movlw	255
  2340  0186  00ED               	movwf	??_main
  2341  0187  086D               	movf	??_main,w
  2342  0188  00E4               	movwf	set_led_color@red
  2343  0189  30FF               	movlw	255
  2344  018A  00EE               	movwf	??_main+1
  2345  018B  086E               	movf	??_main+1,w
  2346  018C  00E5               	movwf	set_led_color@green
  2347  018D  30FF               	movlw	255
  2348  018E  00EF               	movwf	??_main+2
  2349  018F  086F               	movf	??_main+2,w
  2350  0190  00E6               	movwf	set_led_color@blue
  2351  0191  3010               	movlw	16
  2352  0192  3180  2068  3181   	fcall	_set_led_color
  2353  0195                     l2978:
  2354                           
  2355                           ;main.c: 145:             flag_turn_on_light = 0;
  2356  0195  0020               	movlb	0	; select bank0
  2357  0196  01E3               	clrf	_flag_turn_on_light
  2358  0197                     l2980:
  2359                           
  2360                           ;main.c: 146:             (INTCONbits.GIE = 1);
  2361  0197  178B               	bsf	11,7	;volatile
  2362  0198                     l2982:
  2363                           
  2364                           ;main.c: 147:             TMR1_StartTimer();
  2365  0198  3182  227C  3181   	fcall	_TMR1_StartTimer
  2366  019B  297E               	goto	l2972
  2367  019C  3180  2845         	ljmp	start
  2368  019E                     __end_of_main:
  2369                           
  2370                           	psect	text1
  2371  0068                     __ptext1:	
  2372 ;; *************** function _set_led_color *****************
  2373 ;; Defined at:
  2374 ;;		line 30 in file "RGB_5050.c"
  2375 ;; Parameters:    Size  Location     Type
  2376 ;;  number_led      1    wreg     unsigned char 
  2377 ;;  red             1    0[BANK0 ] unsigned char 
  2378 ;;  green           1    1[BANK0 ] unsigned char 
  2379 ;;  blue            1    2[BANK0 ] unsigned char 
  2380 ;; Auto vars:     Size  Location     Type
  2381 ;;  number_led      1    4[BANK0 ] unsigned char 
  2382 ;;  i               1    8[BANK0 ] unsigned char 
  2383 ;;  i               1    7[BANK0 ] unsigned char 
  2384 ;;  i               1    6[BANK0 ] unsigned char 
  2385 ;;  number_led_c    1    5[BANK0 ] unsigned char 
  2386 ;; Return value:  Size  Location     Type
  2387 ;;                  1    wreg      void 
  2388 ;; Registers used:
  2389 ;;		wreg, status,2, status,0
  2390 ;; Tracked objects:
  2391 ;;		On entry : 0/0
  2392 ;;		On exit  : 0/0
  2393 ;;		Unchanged: 0/0
  2394 ;; Data sizes:     COMMON   BANK0   BANK1   BANK2   BANK3   BANK4   BANK5   BANK6
  2395 ;;      Params:         0       3       0       0       0       0       0       0
  2396 ;;      Locals:         0       5       0       0       0       0       0       0
  2397 ;;      Temps:          0       1       0       0       0       0       0       0
  2398 ;;      Totals:         0       9       0       0       0       0       0       0
  2399 ;;Total ram usage:        9 bytes
  2400 ;; Hardware stack levels used: 1
  2401 ;; Hardware stack levels required when called: 4
  2402 ;; This function calls:
  2403 ;;		Nothing
  2404 ;; This function is called by:
  2405 ;;		_main
  2406 ;; This function uses a non-reentrant model
  2407 ;;
  2408                           
  2409  0068                     _set_led_color:	
  2410                           ;psect for function _set_led_color
  2411                           
  2412                           
  2413                           ;incstack = 0
  2414                           ; Regs used in _set_led_color: [wreg+status,2+status,0]
  2415                           ;set_led_color@number_led stored from wreg
  2416  0068  0020               	movlb	0	; select bank0
  2417  0069  00E8               	movwf	set_led_color@number_led
  2418  006A                     l2784:
  2419                           
  2420                           ;RGB_5050.c: 32:     for(uint8_t number_led_choose = 1; number_led_choose <= number_led;
      +                           number_led_choose++){
  2421  006A  01E9               	clrf	set_led_color@number_led_choose
  2422  006B  0AE9               	incf	set_led_color@number_led_choose,f
  2423  006C  28DD               	goto	l2824
  2424  006D                     l2786:
  2425                           
  2426                           ;RGB_5050.c: 33:         for(uint8_t i = 0; i != 8; i++){
  2427  006D  01EA               	clrf	set_led_color@i
  2428  006E                     l2792:
  2429                           
  2430                           ;RGB_5050.c: 34:             if(green & (0b00000001 << i)){
  2431  006E  3001               	movlw	1
  2432  006F  00E7               	movwf	??_set_led_color
  2433  0070  0A6A               	incf	set_led_color@i,w
  2434  0071  2873               	goto	u1204
  2435  0072                     u1205:
  2436  0072  35E7               	lslf	??_set_led_color,f
  2437  0073                     u1204:
  2438  0073  0B89               	decfsz	9,f
  2439  0074  2872               	goto	u1205
  2440  0075  0867               	movf	??_set_led_color,w
  2441  0076  0565               	andwf	set_led_color@green,w
  2442  0077  1903               	btfsc	3,2
  2443  0078  287A               	goto	u1211
  2444  0079  287B               	goto	u1210
  2445  007A                     u1211:
  2446  007A  2882               	goto	l141
  2447  007B                     u1210:
  2448  007B                     l2794:
  2449                           
  2450                           ;RGB_5050.c: 35:                 LATBbits.LATB5 = 1;LATBbits.LATB5 = 1;LATBbits.LATB5 = 
      +                          1;LATBbits.LATB5 = 1;LATBbits.LATB5 = 0;
  2451  007B  0022               	movlb	2	; select bank2
  2452  007C  168D               	bsf	13,5	;volatile
  2453  007D  168D               	bsf	13,5	;volatile
  2454  007E  168D               	bsf	13,5	;volatile
  2455  007F  168D               	bsf	13,5	;volatile
  2456  0080  128D               	bcf	13,5	;volatile
  2457                           
  2458                           ;RGB_5050.c: 36:             }
  2459  0081  2886               	goto	l2796
  2460  0082                     l141:	
  2461                           ;RGB_5050.c: 37:             else{
  2462                           
  2463                           
  2464                           ;RGB_5050.c: 38:                 LATBbits.LATB5 = 1;LATBbits.LATB5 = 0;LATBbits.LATB5 = 
      +                          0;
  2465  0082  0022               	movlb	2	; select bank2
  2466  0083  168D               	bsf	13,5	;volatile
  2467  0084  128D               	bcf	13,5	;volatile
  2468  0085  128D               	bcf	13,5	;volatile
  2469  0086                     l2796:
  2470                           
  2471                           ;RGB_5050.c: 40:         }
  2472  0086  3001               	movlw	1
  2473  0087  0020               	movlb	0	; select bank0
  2474  0088  00E7               	movwf	??_set_led_color
  2475  0089  0867               	movf	??_set_led_color,w
  2476  008A  07EA               	addwf	set_led_color@i,f
  2477  008B  3008               	movlw	8
  2478  008C  066A               	xorwf	set_led_color@i,w
  2479  008D  1D03               	btfss	3,2
  2480  008E  2890               	goto	u1221
  2481  008F  2891               	goto	u1220
  2482  0090                     u1221:
  2483  0090  286E               	goto	l2792
  2484  0091                     u1220:
  2485  0091                     l2798:
  2486                           
  2487                           ;RGB_5050.c: 42:         for(uint8_t i = 0; i != 8; i++){
  2488  0091  01EB               	clrf	set_led_color@i_352
  2489  0092                     l2804:
  2490                           
  2491                           ;RGB_5050.c: 43:             if(red & (0b00000001 << i)){
  2492  0092  3001               	movlw	1
  2493  0093  00E7               	movwf	??_set_led_color
  2494  0094  0A6B               	incf	set_led_color@i_352,w
  2495  0095  2897               	goto	u1234
  2496  0096                     u1235:
  2497  0096  35E7               	lslf	??_set_led_color,f
  2498  0097                     u1234:
  2499  0097  0B89               	decfsz	9,f
  2500  0098  2896               	goto	u1235
  2501  0099  0867               	movf	??_set_led_color,w
  2502  009A  0564               	andwf	set_led_color@red,w
  2503  009B  1903               	btfsc	3,2
  2504  009C  289E               	goto	u1241
  2505  009D  289F               	goto	u1240
  2506  009E                     u1241:
  2507  009E  28A6               	goto	l145
  2508  009F                     u1240:
  2509  009F                     l2806:
  2510                           
  2511                           ;RGB_5050.c: 44:                 LATBbits.LATB5 = 1;LATBbits.LATB5 = 1;LATBbits.LATB5 = 
      +                          1;LATBbits.LATB5 = 1;LATBbits.LATB5 = 0;
  2512  009F  0022               	movlb	2	; select bank2
  2513  00A0  168D               	bsf	13,5	;volatile
  2514  00A1  168D               	bsf	13,5	;volatile
  2515  00A2  168D               	bsf	13,5	;volatile
  2516  00A3  168D               	bsf	13,5	;volatile
  2517  00A4  128D               	bcf	13,5	;volatile
  2518                           
  2519                           ;RGB_5050.c: 45:             }
  2520  00A5  28AA               	goto	l2808
  2521  00A6                     l145:	
  2522                           ;RGB_5050.c: 46:             else{
  2523                           
  2524                           
  2525                           ;RGB_5050.c: 47:                 LATBbits.LATB5 = 1;LATBbits.LATB5 = 0;LATBbits.LATB5 = 
      +                          0;
  2526  00A6  0022               	movlb	2	; select bank2
  2527  00A7  168D               	bsf	13,5	;volatile
  2528  00A8  128D               	bcf	13,5	;volatile
  2529  00A9  128D               	bcf	13,5	;volatile
  2530  00AA                     l2808:
  2531                           
  2532                           ;RGB_5050.c: 49:         }
  2533  00AA  3001               	movlw	1
  2534  00AB  0020               	movlb	0	; select bank0
  2535  00AC  00E7               	movwf	??_set_led_color
  2536  00AD  0867               	movf	??_set_led_color,w
  2537  00AE  07EB               	addwf	set_led_color@i_352,f
  2538  00AF  3008               	movlw	8
  2539  00B0  066B               	xorwf	set_led_color@i_352,w
  2540  00B1  1D03               	btfss	3,2
  2541  00B2  28B4               	goto	u1251
  2542  00B3  28B5               	goto	u1250
  2543  00B4                     u1251:
  2544  00B4  2892               	goto	l2804
  2545  00B5                     u1250:
  2546  00B5                     l2810:
  2547                           
  2548                           ;RGB_5050.c: 51:         for(uint8_t i = 0; i != 8; i++){
  2549  00B5  01EC               	clrf	set_led_color@i_353
  2550  00B6                     l2816:
  2551                           
  2552                           ;RGB_5050.c: 52:             if(blue & (0b00000001 << i)){
  2553  00B6  3001               	movlw	1
  2554  00B7  00E7               	movwf	??_set_led_color
  2555  00B8  0A6C               	incf	set_led_color@i_353,w
  2556  00B9  28BB               	goto	u1264
  2557  00BA                     u1265:
  2558  00BA  35E7               	lslf	??_set_led_color,f
  2559  00BB                     u1264:
  2560  00BB  0B89               	decfsz	9,f
  2561  00BC  28BA               	goto	u1265
  2562  00BD  0867               	movf	??_set_led_color,w
  2563  00BE  0566               	andwf	set_led_color@blue,w
  2564  00BF  1903               	btfsc	3,2
  2565  00C0  28C2               	goto	u1271
  2566  00C1  28C3               	goto	u1270
  2567  00C2                     u1271:
  2568  00C2  28CA               	goto	l149
  2569  00C3                     u1270:
  2570  00C3                     l2818:
  2571                           
  2572                           ;RGB_5050.c: 53:                 LATBbits.LATB5 = 1;LATBbits.LATB5 = 1;LATBbits.LATB5 = 
      +                          1;LATBbits.LATB5 = 1;LATBbits.LATB5 = 0;
  2573  00C3  0022               	movlb	2	; select bank2
  2574  00C4  168D               	bsf	13,5	;volatile
  2575  00C5  168D               	bsf	13,5	;volatile
  2576  00C6  168D               	bsf	13,5	;volatile
  2577  00C7  168D               	bsf	13,5	;volatile
  2578  00C8  128D               	bcf	13,5	;volatile
  2579                           
  2580                           ;RGB_5050.c: 54:             }
  2581  00C9  28CE               	goto	l2820
  2582  00CA                     l149:	
  2583                           ;RGB_5050.c: 55:             else{
  2584                           
  2585                           
  2586                           ;RGB_5050.c: 56:                 LATBbits.LATB5 = 1;LATBbits.LATB5 = 0;LATBbits.LATB5 = 
      +                          0;
  2587  00CA  0022               	movlb	2	; select bank2
  2588  00CB  168D               	bsf	13,5	;volatile
  2589  00CC  128D               	bcf	13,5	;volatile
  2590  00CD  128D               	bcf	13,5	;volatile
  2591  00CE                     l2820:
  2592                           
  2593                           ;RGB_5050.c: 58:         }
  2594  00CE  3001               	movlw	1
  2595  00CF  0020               	movlb	0	; select bank0
  2596  00D0  00E7               	movwf	??_set_led_color
  2597  00D1  0867               	movf	??_set_led_color,w
  2598  00D2  07EC               	addwf	set_led_color@i_353,f
  2599  00D3  3008               	movlw	8
  2600  00D4  066C               	xorwf	set_led_color@i_353,w
  2601  00D5  1D03               	btfss	3,2
  2602  00D6  28D8               	goto	u1281
  2603  00D7  28D9               	goto	u1280
  2604  00D8                     u1281:
  2605  00D8  28B6               	goto	l2816
  2606  00D9                     u1280:
  2607  00D9                     l2822:
  2608                           
  2609                           ;RGB_5050.c: 59:     }
  2610  00D9  3001               	movlw	1
  2611  00DA  00E7               	movwf	??_set_led_color
  2612  00DB  0867               	movf	??_set_led_color,w
  2613  00DC  07E9               	addwf	set_led_color@number_led_choose,f
  2614  00DD                     l2824:
  2615  00DD  0869               	movf	set_led_color@number_led_choose,w
  2616  00DE  0268               	subwf	set_led_color@number_led,w
  2617  00DF  1803               	skipnc
  2618  00E0  28E2               	goto	u1291
  2619  00E1  28E3               	goto	u1290
  2620  00E2                     u1291:
  2621  00E2  286D               	goto	l2786
  2622  00E3                     u1290:
  2623  00E3                     l151:
  2624                           
  2625                           ;RGB_5050.c: 60:     LATBbits.LATB5 = 1;LATBbits.LATB5 = 0;_delay((unsigned long)((200)*
      +                          (32000000/4000000.0)));
  2626  00E3  0022               	movlb	2	; select bank2
  2627  00E4  168D               	bsf	13,5	;volatile
  2628  00E5  128D               	bcf	13,5	;volatile
  2629  00E6                     l2826:
  2630  00E6  30E4               	movlw	228
  2631  00E7                     u2027:
  2632  00E7  3200               	nop2
  2633  00E8  3200               	nop2
  2634  00E9  0B89               	decfsz	9,f
  2635  00EA  28E7               	goto	u2027
  2636  00EB  3200               	nop2
  2637  00EC  3200               	nop2
  2638  00ED                     l152:
  2639  00ED  0008               	return
  2640  00EE                     __end_of_set_led_color:
  2641                           
  2642                           	psect	text2
  2643  027C                     __ptext2:	
  2644 ;; *************** function _TMR1_StartTimer *****************
  2645 ;; Defined at:
  2646 ;;		line 93 in file "mcc_generated_files/tmr1.c"
  2647 ;; Parameters:    Size  Location     Type
  2648 ;;		None
  2649 ;; Auto vars:     Size  Location     Type
  2650 ;;		None
  2651 ;; Return value:  Size  Location     Type
  2652 ;;                  1    wreg      void 
  2653 ;; Registers used:
  2654 ;;		None
  2655 ;; Tracked objects:
  2656 ;;		On entry : 0/0
  2657 ;;		On exit  : 0/0
  2658 ;;		Unchanged: 0/0
  2659 ;; Data sizes:     COMMON   BANK0   BANK1   BANK2   BANK3   BANK4   BANK5   BANK6
  2660 ;;      Params:         0       0       0       0       0       0       0       0
  2661 ;;      Locals:         0       0       0       0       0       0       0       0
  2662 ;;      Temps:          0       0       0       0       0       0       0       0
  2663 ;;      Totals:         0       0       0       0       0       0       0       0
  2664 ;;Total ram usage:        0 bytes
  2665 ;; Hardware stack levels used: 1
  2666 ;; Hardware stack levels required when called: 4
  2667 ;; This function calls:
  2668 ;;		Nothing
  2669 ;; This function is called by:
  2670 ;;		_main
  2671 ;; This function uses a non-reentrant model
  2672 ;;
  2673                           
  2674  027C                     _TMR1_StartTimer:	
  2675                           ;psect for function _TMR1_StartTimer
  2676                           
  2677  027C                     l2830:	
  2678                           ;incstack = 0
  2679                           ; Regs used in _TMR1_StartTimer: []
  2680                           
  2681                           
  2682                           ;mcc_generated_files/tmr1.c: 96:     T1CONbits.TMR1ON = 1;
  2683  027C  0020               	movlb	0	; select bank0
  2684  027D  1418               	bsf	24,0	;volatile
  2685  027E                     l698:
  2686  027E  0008               	return
  2687  027F                     __end_of_TMR1_StartTimer:
  2688                           
  2689                           	psect	text3
  2690  020E                     __ptext3:	
  2691 ;; *************** function _SYSTEM_Initialize *****************
  2692 ;; Defined at:
  2693 ;;		line 50 in file "mcc_generated_files/mcc.c"
  2694 ;; Parameters:    Size  Location     Type
  2695 ;;		None
  2696 ;; Auto vars:     Size  Location     Type
  2697 ;;		None
  2698 ;; Return value:  Size  Location     Type
  2699 ;;                  1    wreg      void 
  2700 ;; Registers used:
  2701 ;;		wreg, status,2, status,0, pclath, cstack
  2702 ;; Tracked objects:
  2703 ;;		On entry : 0/0
  2704 ;;		On exit  : 0/0
  2705 ;;		Unchanged: 0/0
  2706 ;; Data sizes:     COMMON   BANK0   BANK1   BANK2   BANK3   BANK4   BANK5   BANK6
  2707 ;;      Params:         0       0       0       0       0       0       0       0
  2708 ;;      Locals:         0       0       0       0       0       0       0       0
  2709 ;;      Temps:          0       0       0       0       0       0       0       0
  2710 ;;      Totals:         0       0       0       0       0       0       0       0
  2711 ;;Total ram usage:        0 bytes
  2712 ;; Hardware stack levels used: 1
  2713 ;; Hardware stack levels required when called: 6
  2714 ;; This function calls:
  2715 ;;		_EXT_INT_Initialize
  2716 ;;		_I2C_Initialize
  2717 ;;		_OSCILLATOR_Initialize
  2718 ;;		_PIN_MANAGER_Initialize
  2719 ;;		_TMR1_Initialize
  2720 ;;		_WDT_Initialize
  2721 ;; This function is called by:
  2722 ;;		_main
  2723 ;; This function uses a non-reentrant model
  2724 ;;
  2725                           
  2726  020E                     _SYSTEM_Initialize:	
  2727                           ;psect for function _SYSTEM_Initialize
  2728                           
  2729  020E                     l2770:	
  2730                           ;incstack = 0
  2731                           ; Regs used in _SYSTEM_Initialize: [wreg+status,2+status,0+pclath+cstack]
  2732                           
  2733                           
  2734                           ;mcc_generated_files/mcc.c: 53:     I2C_Initialize();
  2735  020E  3182  2258  3182   	fcall	_I2C_Initialize
  2736                           
  2737                           ;mcc_generated_files/mcc.c: 54:     PIN_MANAGER_Initialize();
  2738  0211  3181  219E  3182   	fcall	_PIN_MANAGER_Initialize
  2739                           
  2740                           ;mcc_generated_files/mcc.c: 55:     OSCILLATOR_Initialize();
  2741  0214  3182  224C  3182   	fcall	_OSCILLATOR_Initialize
  2742                           
  2743                           ;mcc_generated_files/mcc.c: 56:     WDT_Initialize();
  2744  0217  3182  2278  3182   	fcall	_WDT_Initialize
  2745                           
  2746                           ;mcc_generated_files/mcc.c: 57:     TMR1_Initialize();
  2747  021A  3181  21E0  3182   	fcall	_TMR1_Initialize
  2748                           
  2749                           ;mcc_generated_files/mcc.c: 58:     EXT_INT_Initialize();
  2750  021D  3182  2232  3182   	fcall	_EXT_INT_Initialize
  2751  0220                     l67:
  2752  0220  0008               	return
  2753  0221                     __end_of_SYSTEM_Initialize:
  2754                           
  2755                           	psect	text4
  2756  0278                     __ptext4:	
  2757 ;; *************** function _WDT_Initialize *****************
  2758 ;; Defined at:
  2759 ;;		line 75 in file "mcc_generated_files/mcc.c"
  2760 ;; Parameters:    Size  Location     Type
  2761 ;;		None
  2762 ;; Auto vars:     Size  Location     Type
  2763 ;;		None
  2764 ;; Return value:  Size  Location     Type
  2765 ;;                  1    wreg      void 
  2766 ;; Registers used:
  2767 ;;		wreg
  2768 ;; Tracked objects:
  2769 ;;		On entry : 0/0
  2770 ;;		On exit  : 0/0
  2771 ;;		Unchanged: 0/0
  2772 ;; Data sizes:     COMMON   BANK0   BANK1   BANK2   BANK3   BANK4   BANK5   BANK6
  2773 ;;      Params:         0       0       0       0       0       0       0       0
  2774 ;;      Locals:         0       0       0       0       0       0       0       0
  2775 ;;      Temps:          0       0       0       0       0       0       0       0
  2776 ;;      Totals:         0       0       0       0       0       0       0       0
  2777 ;;Total ram usage:        0 bytes
  2778 ;; Hardware stack levels used: 1
  2779 ;; Hardware stack levels required when called: 4
  2780 ;; This function calls:
  2781 ;;		Nothing
  2782 ;; This function is called by:
  2783 ;;		_SYSTEM_Initialize
  2784 ;; This function uses a non-reentrant model
  2785 ;;
  2786                           
  2787  0278                     _WDT_Initialize:	
  2788                           ;psect for function _WDT_Initialize
  2789                           
  2790  0278                     l2672:	
  2791                           ;incstack = 0
  2792                           ; Regs used in _WDT_Initialize: [wreg]
  2793                           
  2794                           
  2795                           ;mcc_generated_files/mcc.c: 78:     WDTCON = 0x16;
  2796  0278  3016               	movlw	22
  2797  0279  0021               	movlb	1	; select bank1
  2798  027A  0097               	movwf	23	;volatile
  2799  027B                     l76:
  2800  027B  0008               	return
  2801  027C                     __end_of_WDT_Initialize:
  2802                           
  2803                           	psect	text5
  2804  01E0                     __ptext5:	
  2805 ;; *************** function _TMR1_Initialize *****************
  2806 ;; Defined at:
  2807 ;;		line 64 in file "mcc_generated_files/tmr1.c"
  2808 ;; Parameters:    Size  Location     Type
  2809 ;;		None
  2810 ;; Auto vars:     Size  Location     Type
  2811 ;;		None
  2812 ;; Return value:  Size  Location     Type
  2813 ;;                  1    wreg      void 
  2814 ;; Registers used:
  2815 ;;		wreg, status,2, status,0, pclath, cstack
  2816 ;; Tracked objects:
  2817 ;;		On entry : 0/0
  2818 ;;		On exit  : 0/0
  2819 ;;		Unchanged: 0/0
  2820 ;; Data sizes:     COMMON   BANK0   BANK1   BANK2   BANK3   BANK4   BANK5   BANK6
  2821 ;;      Params:         0       0       0       0       0       0       0       0
  2822 ;;      Locals:         0       0       0       0       0       0       0       0
  2823 ;;      Temps:          0       0       0       0       0       0       0       0
  2824 ;;      Totals:         0       0       0       0       0       0       0       0
  2825 ;;Total ram usage:        0 bytes
  2826 ;; Hardware stack levels used: 1
  2827 ;; Hardware stack levels required when called: 5
  2828 ;; This function calls:
  2829 ;;		_TMR1_SetInterruptHandler
  2830 ;; This function is called by:
  2831 ;;		_SYSTEM_Initialize
  2832 ;; This function uses a non-reentrant model
  2833 ;;
  2834                           
  2835  01E0                     _TMR1_Initialize:	
  2836                           ;psect for function _TMR1_Initialize
  2837                           
  2838  01E0                     l2674:	
  2839                           ;incstack = 0
  2840                           ; Regs used in _TMR1_Initialize: [wreg+status,2+status,0+pclath+cstack]
  2841                           
  2842                           
  2843                           ;mcc_generated_files/tmr1.c: 69:     T1GCON = 0x00;
  2844  01E0  0020               	movlb	0	; select bank0
  2845  01E1  0199               	clrf	25	;volatile
  2846  01E2                     l2676:
  2847                           
  2848                           ;mcc_generated_files/tmr1.c: 72:     TMR1H = 0x15;
  2849  01E2  3015               	movlw	21
  2850  01E3  0097               	movwf	23	;volatile
  2851  01E4                     l2678:
  2852                           
  2853                           ;mcc_generated_files/tmr1.c: 75:     TMR1L = 0xA0;
  2854  01E4  30A0               	movlw	160
  2855  01E5  0096               	movwf	22	;volatile
  2856  01E6                     l2680:
  2857                           
  2858                           ;mcc_generated_files/tmr1.c: 78:     PIR1bits.TMR1IF = 0;
  2859  01E6  1011               	bcf	17,0	;volatile
  2860  01E7                     l2682:
  2861                           
  2862                           ;mcc_generated_files/tmr1.c: 81:     timer1ReloadVal=(uint16_t)((TMR1H << 8) | TMR1L);
  2863  01E7  0817               	movf	23,w	;volatile
  2864  01E8  00FC               	movwf	_timer1ReloadVal+1	;volatile
  2865  01E9  0816               	movf	22,w	;volatile
  2866  01EA  00FB               	movwf	_timer1ReloadVal	;volatile
  2867  01EB                     l2684:
  2868                           
  2869                           ;mcc_generated_files/tmr1.c: 84:     PIE1bits.TMR1IE = 1;
  2870  01EB  0021               	movlb	1	; select bank1
  2871  01EC  1411               	bsf	17,0	;volatile
  2872  01ED                     l2686:
  2873                           
  2874                           ;mcc_generated_files/tmr1.c: 87:     TMR1_SetInterruptHandler(TMR1_DefaultInterruptHandl
      +                          er);
  2875  01ED  3082               	movlw	low _TMR1_DefaultInterruptHandler
  2876  01EE  0020               	movlb	0	; select bank0
  2877  01EF  00E4               	movwf	TMR1_SetInterruptHandler@InterruptHandler
  2878  01F0  3002               	movlw	high _TMR1_DefaultInterruptHandler
  2879  01F1  00E5               	movwf	TMR1_SetInterruptHandler@InterruptHandler+1
  2880  01F2  3182  2267  3181   	fcall	_TMR1_SetInterruptHandler
  2881  01F5                     l2688:
  2882                           
  2883                           ;mcc_generated_files/tmr1.c: 90:     T1CON = 0x31;
  2884  01F5  3031               	movlw	49
  2885  01F6  0020               	movlb	0	; select bank0
  2886  01F7  0098               	movwf	24	;volatile
  2887  01F8                     l695:
  2888  01F8  0008               	return
  2889  01F9                     __end_of_TMR1_Initialize:
  2890                           
  2891                           	psect	text6
  2892  0267                     __ptext6:	
  2893 ;; *************** function _TMR1_SetInterruptHandler *****************
  2894 ;; Defined at:
  2895 ;;		line 171 in file "mcc_generated_files/tmr1.c"
  2896 ;; Parameters:    Size  Location     Type
  2897 ;;  InterruptHan    2    0[BANK0 ] PTR FTN()void 
  2898 ;;		 -> TMR1_DefaultInterruptHandler(1), 
  2899 ;; Auto vars:     Size  Location     Type
  2900 ;;		None
  2901 ;; Return value:  Size  Location     Type
  2902 ;;                  1    wreg      void 
  2903 ;; Registers used:
  2904 ;;		wreg
  2905 ;; Tracked objects:
  2906 ;;		On entry : 0/0
  2907 ;;		On exit  : 0/0
  2908 ;;		Unchanged: 0/0
  2909 ;; Data sizes:     COMMON   BANK0   BANK1   BANK2   BANK3   BANK4   BANK5   BANK6
  2910 ;;      Params:         0       2       0       0       0       0       0       0
  2911 ;;      Locals:         0       0       0       0       0       0       0       0
  2912 ;;      Temps:          0       0       0       0       0       0       0       0
  2913 ;;      Totals:         0       2       0       0       0       0       0       0
  2914 ;;Total ram usage:        2 bytes
  2915 ;; Hardware stack levels used: 1
  2916 ;; Hardware stack levels required when called: 4
  2917 ;; This function calls:
  2918 ;;		Nothing
  2919 ;; This function is called by:
  2920 ;;		_TMR1_Initialize
  2921 ;; This function uses a non-reentrant model
  2922 ;;
  2923                           
  2924  0267                     _TMR1_SetInterruptHandler:	
  2925                           ;psect for function _TMR1_SetInterruptHandler
  2926                           
  2927  0267                     l2628:	
  2928                           ;incstack = 0
  2929                           ; Regs used in _TMR1_SetInterruptHandler: [wreg]
  2930                           
  2931                           
  2932                           ;mcc_generated_files/tmr1.c: 172:     TMR1_InterruptHandler = InterruptHandler;
  2933  0267  0020               	movlb	0	; select bank0
  2934  0268  0865               	movf	TMR1_SetInterruptHandler@InterruptHandler+1,w
  2935  0269  00FA               	movwf	_TMR1_InterruptHandler+1
  2936  026A  0864               	movf	TMR1_SetInterruptHandler@InterruptHandler,w
  2937  026B  00F9               	movwf	_TMR1_InterruptHandler
  2938  026C                     l725:
  2939  026C  0008               	return
  2940  026D                     __end_of_TMR1_SetInterruptHandler:
  2941                           
  2942                           	psect	text7
  2943  019E                     __ptext7:	
  2944 ;; *************** function _PIN_MANAGER_Initialize *****************
  2945 ;; Defined at:
  2946 ;;		line 55 in file "mcc_generated_files/pin_manager.c"
  2947 ;; Parameters:    Size  Location     Type
  2948 ;;		None
  2949 ;; Auto vars:     Size  Location     Type
  2950 ;;		None
  2951 ;; Return value:  Size  Location     Type
  2952 ;;                  1    wreg      void 
  2953 ;; Registers used:
  2954 ;;		wreg, status,2
  2955 ;; Tracked objects:
  2956 ;;		On entry : 0/0
  2957 ;;		On exit  : 0/0
  2958 ;;		Unchanged: 0/0
  2959 ;; Data sizes:     COMMON   BANK0   BANK1   BANK2   BANK3   BANK4   BANK5   BANK6
  2960 ;;      Params:         0       0       0       0       0       0       0       0
  2961 ;;      Locals:         0       0       0       0       0       0       0       0
  2962 ;;      Temps:          0       0       0       0       0       0       0       0
  2963 ;;      Totals:         0       0       0       0       0       0       0       0
  2964 ;;Total ram usage:        0 bytes
  2965 ;; Hardware stack levels used: 1
  2966 ;; Hardware stack levels required when called: 4
  2967 ;; This function calls:
  2968 ;;		Nothing
  2969 ;; This function is called by:
  2970 ;;		_SYSTEM_Initialize
  2971 ;; This function uses a non-reentrant model
  2972 ;;
  2973                           
  2974  019E                     _PIN_MANAGER_Initialize:	
  2975                           ;psect for function _PIN_MANAGER_Initialize
  2976                           
  2977  019E                     l2630:	
  2978                           ;incstack = 0
  2979                           ; Regs used in _PIN_MANAGER_Initialize: [wreg+status,2]
  2980                           
  2981                           
  2982                           ;mcc_generated_files/pin_manager.c: 60:     LATE = 0x00;
  2983  019E  0022               	movlb	2	; select bank2
  2984  019F  0190               	clrf	16	;volatile
  2985                           
  2986                           ;mcc_generated_files/pin_manager.c: 61:     LATD = 0x00;
  2987  01A0  018F               	clrf	15	;volatile
  2988                           
  2989                           ;mcc_generated_files/pin_manager.c: 62:     LATA = 0x00;
  2990  01A1  018C               	clrf	12	;volatile
  2991                           
  2992                           ;mcc_generated_files/pin_manager.c: 63:     LATB = 0x00;
  2993  01A2  018D               	clrf	13	;volatile
  2994                           
  2995                           ;mcc_generated_files/pin_manager.c: 64:     LATC = 0x00;
  2996  01A3  018E               	clrf	14	;volatile
  2997  01A4                     l2632:
  2998                           
  2999                           ;mcc_generated_files/pin_manager.c: 69:     TRISE = 0x0F;
  3000  01A4  300F               	movlw	15
  3001  01A5  0021               	movlb	1	; select bank1
  3002  01A6  0090               	movwf	16	;volatile
  3003  01A7                     l2634:
  3004                           
  3005                           ;mcc_generated_files/pin_manager.c: 70:     TRISA = 0xFF;
  3006  01A7  30FF               	movlw	255
  3007  01A8  008C               	movwf	12	;volatile
  3008  01A9                     l2636:
  3009                           
  3010                           ;mcc_generated_files/pin_manager.c: 71:     TRISB = 0xCF;
  3011  01A9  30CF               	movlw	207
  3012  01AA  008D               	movwf	13	;volatile
  3013  01AB                     l2638:
  3014                           
  3015                           ;mcc_generated_files/pin_manager.c: 72:     TRISC = 0xFF;
  3016  01AB  30FF               	movlw	255
  3017  01AC  008E               	movwf	14	;volatile
  3018  01AD                     l2640:
  3019                           
  3020                           ;mcc_generated_files/pin_manager.c: 73:     TRISD = 0xFF;
  3021  01AD  30FF               	movlw	255
  3022  01AE  008F               	movwf	15	;volatile
  3023  01AF                     l2642:
  3024                           
  3025                           ;mcc_generated_files/pin_manager.c: 78:     ANSELD = 0xFF;
  3026  01AF  30FF               	movlw	255
  3027  01B0  0023               	movlb	3	; select bank3
  3028  01B1  008F               	movwf	15	;volatile
  3029  01B2                     l2644:
  3030                           
  3031                           ;mcc_generated_files/pin_manager.c: 79:     ANSELB = 0x0E;
  3032  01B2  300E               	movlw	14
  3033  01B3  008D               	movwf	13	;volatile
  3034  01B4                     l2646:
  3035                           
  3036                           ;mcc_generated_files/pin_manager.c: 80:     ANSELE = 0x07;
  3037  01B4  3007               	movlw	7
  3038  01B5  0090               	movwf	16	;volatile
  3039  01B6                     l2648:
  3040                           
  3041                           ;mcc_generated_files/pin_manager.c: 81:     ANSELA = 0x3F;
  3042  01B6  303F               	movlw	63
  3043  01B7  008C               	movwf	12	;volatile
  3044  01B8                     l2650:
  3045                           
  3046                           ;mcc_generated_files/pin_manager.c: 86:     WPUE = 0x00;
  3047  01B8  0024               	movlb	4	; select bank4
  3048  01B9  0190               	clrf	16	;volatile
  3049  01BA                     l2652:
  3050                           
  3051                           ;mcc_generated_files/pin_manager.c: 87:     WPUB = 0x00;
  3052  01BA  018D               	clrf	13	;volatile
  3053  01BB                     l2654:
  3054                           
  3055                           ;mcc_generated_files/pin_manager.c: 88:     OPTION_REGbits.nWPUEN = 1;
  3056  01BB  0021               	movlb	1	; select bank1
  3057  01BC  1795               	bsf	21,7	;volatile
  3058  01BD                     l2656:
  3059                           
  3060                           ;mcc_generated_files/pin_manager.c: 94:     APFCON = 0x00;
  3061  01BD  0022               	movlb	2	; select bank2
  3062  01BE  019D               	clrf	29	;volatile
  3063  01BF                     l39:
  3064  01BF  0008               	return
  3065  01C0                     __end_of_PIN_MANAGER_Initialize:
  3066                           
  3067                           	psect	text8
  3068  024C                     __ptext8:	
  3069 ;; *************** function _OSCILLATOR_Initialize *****************
  3070 ;; Defined at:
  3071 ;;		line 61 in file "mcc_generated_files/mcc.c"
  3072 ;; Parameters:    Size  Location     Type
  3073 ;;		None
  3074 ;; Auto vars:     Size  Location     Type
  3075 ;;		None
  3076 ;; Return value:  Size  Location     Type
  3077 ;;                  1    wreg      void 
  3078 ;; Registers used:
  3079 ;;		wreg, status,2
  3080 ;; Tracked objects:
  3081 ;;		On entry : 0/0
  3082 ;;		On exit  : 0/0
  3083 ;;		Unchanged: 0/0
  3084 ;; Data sizes:     COMMON   BANK0   BANK1   BANK2   BANK3   BANK4   BANK5   BANK6
  3085 ;;      Params:         0       0       0       0       0       0       0       0
  3086 ;;      Locals:         0       0       0       0       0       0       0       0
  3087 ;;      Temps:          0       0       0       0       0       0       0       0
  3088 ;;      Totals:         0       0       0       0       0       0       0       0
  3089 ;;Total ram usage:        0 bytes
  3090 ;; Hardware stack levels used: 1
  3091 ;; Hardware stack levels required when called: 4
  3092 ;; This function calls:
  3093 ;;		Nothing
  3094 ;; This function is called by:
  3095 ;;		_SYSTEM_Initialize
  3096 ;; This function uses a non-reentrant model
  3097 ;;
  3098                           
  3099  024C                     _OSCILLATOR_Initialize:	
  3100                           ;psect for function _OSCILLATOR_Initialize
  3101                           
  3102  024C                     l2666:	
  3103                           ;incstack = 0
  3104                           ; Regs used in _OSCILLATOR_Initialize: [wreg+status,2]
  3105                           
  3106                           
  3107                           ;mcc_generated_files/mcc.c: 64:     OSCCON = 0x70;
  3108  024C  3070               	movlw	112
  3109  024D  0021               	movlb	1	; select bank1
  3110  024E  0099               	movwf	25	;volatile
  3111  024F                     l2668:
  3112                           
  3113                           ;mcc_generated_files/mcc.c: 66:     OSCTUNE = 0x00;
  3114  024F  0198               	clrf	24	;volatile
  3115  0250                     l2670:
  3116                           
  3117                           ;mcc_generated_files/mcc.c: 68:     BORCON = 0x00;
  3118  0250  0022               	movlb	2	; select bank2
  3119  0251  0196               	clrf	22	;volatile
  3120  0252                     l70:	
  3121                           ;mcc_generated_files/mcc.c: 71:     {;mcc_generated_files/mcc.c: 72:     }
  3122                           
  3123                           
  3124                           ;mcc_generated_files/mcc.c: 70:     while(PLLR == 0)
  3125  0252  0021               	movlb	1	; select bank1
  3126  0253  1F1A               	btfss	26,6	;volatile
  3127  0254  2A56               	goto	u1141
  3128  0255  2A57               	goto	u1140
  3129  0256                     u1141:
  3130  0256  2A52               	goto	l70
  3131  0257                     u1140:
  3132  0257                     l73:
  3133  0257  0008               	return
  3134  0258                     __end_of_OSCILLATOR_Initialize:
  3135                           
  3136                           	psect	text9
  3137  0258                     __ptext9:	
  3138 ;; *************** function _I2C_Initialize *****************
  3139 ;; Defined at:
  3140 ;;		line 167 in file "mcc_generated_files/i2c_master.c"
  3141 ;; Parameters:    Size  Location     Type
  3142 ;;		None
  3143 ;; Auto vars:     Size  Location     Type
  3144 ;;		None
  3145 ;; Return value:  Size  Location     Type
  3146 ;;                  1    wreg      void 
  3147 ;; Registers used:
  3148 ;;		wreg, status,2
  3149 ;; Tracked objects:
  3150 ;;		On entry : 0/0
  3151 ;;		On exit  : 0/0
  3152 ;;		Unchanged: 0/0
  3153 ;; Data sizes:     COMMON   BANK0   BANK1   BANK2   BANK3   BANK4   BANK5   BANK6
  3154 ;;      Params:         0       0       0       0       0       0       0       0
  3155 ;;      Locals:         0       0       0       0       0       0       0       0
  3156 ;;      Temps:          0       0       0       0       0       0       0       0
  3157 ;;      Totals:         0       0       0       0       0       0       0       0
  3158 ;;Total ram usage:        0 bytes
  3159 ;; Hardware stack levels used: 1
  3160 ;; Hardware stack levels required when called: 4
  3161 ;; This function calls:
  3162 ;;		Nothing
  3163 ;; This function is called by:
  3164 ;;		_SYSTEM_Initialize
  3165 ;; This function uses a non-reentrant model
  3166 ;;
  3167                           
  3168  0258                     _I2C_Initialize:	
  3169                           ;psect for function _I2C_Initialize
  3170                           
  3171  0258                     l2658:	
  3172                           ;incstack = 0
  3173                           ; Regs used in _I2C_Initialize: [wreg+status,2]
  3174                           
  3175                           
  3176                           ;mcc_generated_files/i2c_master.c: 169:     SSPSTAT = 0x00;
  3177  0258  0024               	movlb	4	; select bank4
  3178  0259  0194               	clrf	20	;volatile
  3179  025A                     l2660:
  3180                           
  3181                           ;mcc_generated_files/i2c_master.c: 170:     SSPCON1 = 0x08;
  3182  025A  3008               	movlw	8
  3183  025B  0095               	movwf	21	;volatile
  3184  025C                     l2662:
  3185                           
  3186                           ;mcc_generated_files/i2c_master.c: 171:     SSPCON2 = 0x00;
  3187  025C  0196               	clrf	22	;volatile
  3188                           
  3189                           ;mcc_generated_files/i2c_master.c: 172:     SSPADD = 0x13;
  3190  025D  3013               	movlw	19
  3191  025E  0092               	movwf	18	;volatile
  3192  025F                     l2664:
  3193                           
  3194                           ;mcc_generated_files/i2c_master.c: 173:     SSPCON1bits.SSPEN = 0;
  3195  025F  1295               	bcf	21,5	;volatile
  3196  0260                     l379:
  3197  0260  0008               	return
  3198  0261                     __end_of_I2C_Initialize:
  3199                           
  3200                           	psect	text10
  3201  0232                     __ptext10:	
  3202 ;; *************** function _EXT_INT_Initialize *****************
  3203 ;; Defined at:
  3204 ;;		line 59 in file "mcc_generated_files/ext_int.c"
  3205 ;; Parameters:    Size  Location     Type
  3206 ;;		None
  3207 ;; Auto vars:     Size  Location     Type
  3208 ;;		None
  3209 ;; Return value:  Size  Location     Type
  3210 ;;                  1    wreg      void 
  3211 ;; Registers used:
  3212 ;;		wreg, status,2, status,0, pclath, cstack
  3213 ;; Tracked objects:
  3214 ;;		On entry : 0/0
  3215 ;;		On exit  : 0/0
  3216 ;;		Unchanged: 0/0
  3217 ;; Data sizes:     COMMON   BANK0   BANK1   BANK2   BANK3   BANK4   BANK5   BANK6
  3218 ;;      Params:         0       0       0       0       0       0       0       0
  3219 ;;      Locals:         0       0       0       0       0       0       0       0
  3220 ;;      Temps:          0       0       0       0       0       0       0       0
  3221 ;;      Totals:         0       0       0       0       0       0       0       0
  3222 ;;Total ram usage:        0 bytes
  3223 ;; Hardware stack levels used: 1
  3224 ;; Hardware stack levels required when called: 5
  3225 ;; This function calls:
  3226 ;;		_INT_SetInterruptHandler
  3227 ;; This function is called by:
  3228 ;;		_SYSTEM_Initialize
  3229 ;; This function uses a non-reentrant model
  3230 ;;
  3231                           
  3232  0232                     _EXT_INT_Initialize:	
  3233                           ;psect for function _EXT_INT_Initialize
  3234                           
  3235  0232                     l2690:	
  3236                           ;incstack = 0
  3237                           ; Regs used in _EXT_INT_Initialize: [wreg+status,2+status,0+pclath+cstack]
  3238                           
  3239                           
  3240                           ;mcc_generated_files/ext_int.c: 64:     (INTCONbits.INTF = 0);
  3241  0232  108B               	bcf	11,1	;volatile
  3242                           
  3243                           ;mcc_generated_files/ext_int.c: 65:     (OPTION_REGbits.INTEDG = 1);
  3244  0233  0021               	movlb	1	; select bank1
  3245  0234  1715               	bsf	21,6	;volatile
  3246  0235                     l2692:
  3247                           
  3248                           ;mcc_generated_files/ext_int.c: 67:     INT_SetInterruptHandler(INT_DefaultInterruptHand
      +                          ler);
  3249  0235  3083               	movlw	low _INT_DefaultInterruptHandler
  3250  0236  0020               	movlb	0	; select bank0
  3251  0237  00E4               	movwf	INT_SetInterruptHandler@InterruptHandler
  3252  0238  3002               	movlw	high _INT_DefaultInterruptHandler
  3253  0239  00E5               	movwf	INT_SetInterruptHandler@InterruptHandler+1
  3254  023A  3182  226D  3182   	fcall	_INT_SetInterruptHandler
  3255  023D                     l2694:
  3256                           
  3257                           ;mcc_generated_files/ext_int.c: 68:     (INTCONbits.INTE = 1);
  3258  023D  160B               	bsf	11,4	;volatile
  3259  023E                     l668:
  3260  023E  0008               	return
  3261  023F                     __end_of_EXT_INT_Initialize:
  3262                           
  3263                           	psect	text11
  3264  026D                     __ptext11:	
  3265 ;; *************** function _INT_SetInterruptHandler *****************
  3266 ;; Defined at:
  3267 ;;		line 50 in file "mcc_generated_files/ext_int.c"
  3268 ;; Parameters:    Size  Location     Type
  3269 ;;  InterruptHan    2    0[BANK0 ] PTR FTN()void 
  3270 ;;		 -> INT_DefaultInterruptHandler(1), 
  3271 ;; Auto vars:     Size  Location     Type
  3272 ;;		None
  3273 ;; Return value:  Size  Location     Type
  3274 ;;                  1    wreg      void 
  3275 ;; Registers used:
  3276 ;;		wreg
  3277 ;; Tracked objects:
  3278 ;;		On entry : 0/0
  3279 ;;		On exit  : 0/0
  3280 ;;		Unchanged: 0/0
  3281 ;; Data sizes:     COMMON   BANK0   BANK1   BANK2   BANK3   BANK4   BANK5   BANK6
  3282 ;;      Params:         0       2       0       0       0       0       0       0
  3283 ;;      Locals:         0       0       0       0       0       0       0       0
  3284 ;;      Temps:          0       0       0       0       0       0       0       0
  3285 ;;      Totals:         0       2       0       0       0       0       0       0
  3286 ;;Total ram usage:        2 bytes
  3287 ;; Hardware stack levels used: 1
  3288 ;; Hardware stack levels required when called: 4
  3289 ;; This function calls:
  3290 ;;		Nothing
  3291 ;; This function is called by:
  3292 ;;		_EXT_INT_Initialize
  3293 ;; This function uses a non-reentrant model
  3294 ;;
  3295                           
  3296  026D                     _INT_SetInterruptHandler:	
  3297                           ;psect for function _INT_SetInterruptHandler
  3298                           
  3299  026D                     l2626:	
  3300                           ;incstack = 0
  3301                           ; Regs used in _INT_SetInterruptHandler: [wreg]
  3302                           
  3303                           
  3304                           ;mcc_generated_files/ext_int.c: 51:     INT_InterruptHandler = InterruptHandler;
  3305  026D  0020               	movlb	0	; select bank0
  3306  026E  0865               	movf	INT_SetInterruptHandler@InterruptHandler+1,w
  3307  026F  00E0               	movwf	_INT_InterruptHandler+1
  3308  0270  0864               	movf	INT_SetInterruptHandler@InterruptHandler,w
  3309  0271  00DF               	movwf	_INT_InterruptHandler
  3310  0272                     l662:
  3311  0272  0008               	return
  3312  0273                     __end_of_INT_SetInterruptHandler:
  3313                           
  3314                           	psect	intentry
  3315  0004                     __pintentry:	
  3316 ;; *************** function _INTERRUPT_InterruptManager *****************
  3317 ;; Defined at:
  3318 ;;		line 59 in file "main.c"
  3319 ;; Parameters:    Size  Location     Type
  3320 ;;		None
  3321 ;; Auto vars:     Size  Location     Type
  3322 ;;		None
  3323 ;; Return value:  Size  Location     Type
  3324 ;;                  1    wreg      void 
  3325 ;; Registers used:
  3326 ;;		wreg, status,2, status,0, pclath, cstack
  3327 ;; Tracked objects:
  3328 ;;		On entry : 0/0
  3329 ;;		On exit  : 0/0
  3330 ;;		Unchanged: 0/0
  3331 ;; Data sizes:     COMMON   BANK0   BANK1   BANK2   BANK3   BANK4   BANK5   BANK6
  3332 ;;      Params:         0       0       0       0       0       0       0       0
  3333 ;;      Locals:         0       0       0       0       0       0       0       0
  3334 ;;      Temps:          0       0       0       0       0       0       0       0
  3335 ;;      Totals:         0       0       0       0       0       0       0       0
  3336 ;;Total ram usage:        0 bytes
  3337 ;; Hardware stack levels used: 1
  3338 ;; Hardware stack levels required when called: 3
  3339 ;; This function calls:
  3340 ;;		_INT_ISR
  3341 ;;		_TMR1_ISR
  3342 ;;		_TMR1_StopTimer
  3343 ;;		i1_set_led_color
  3344 ;; This function is called by:
  3345 ;;		Interrupt level 1
  3346 ;; This function uses a non-reentrant model
  3347 ;;
  3348                           
  3349  0004                     _INTERRUPT_InterruptManager:
  3350                           
  3351                           ;incstack = 0
  3352  0004  147E               	bsf	int$flags,0	;set compiler interrupt flag (level 1)
  3353                           
  3354                           ; Regs used in _INTERRUPT_InterruptManager: [wreg+status,2+status,0+pclath+cstack]
  3355  0005  3180               	pagesel	$
  3356  0006                     i1l2940:
  3357                           
  3358                           ;main.c: 62:     if(INTCONbits.INTE == 1 && INTCONbits.INTF == 1)
  3359  0006  1E0B               	btfss	11,4	;volatile
  3360  0007  2809               	goto	u148_21
  3361  0008  280A               	goto	u148_20
  3362  0009                     u148_21:
  3363  0009  2815               	goto	i1l113
  3364  000A                     u148_20:
  3365  000A                     i1l2942:
  3366  000A  1C8B               	btfss	11,1	;volatile
  3367  000B  280D               	goto	u149_21
  3368  000C  280E               	goto	u149_20
  3369  000D                     u149_21:
  3370  000D  2815               	goto	i1l113
  3371  000E                     u149_20:
  3372  000E                     i1l2944:
  3373                           
  3374                           ;main.c: 63:     {;main.c: 64:         INT_ISR();
  3375  000E  3182  2273  3180   	fcall	_INT_ISR
  3376  0011                     i1l2946:
  3377                           
  3378                           ;main.c: 65:         flag_turn_on_light = 1;
  3379  0011  0020               	movlb	0	; select bank0
  3380  0012  01E3               	clrf	_flag_turn_on_light
  3381  0013  0AE3               	incf	_flag_turn_on_light,f
  3382                           
  3383                           ;main.c: 66:     }
  3384  0014  2843               	goto	i1l121
  3385  0015                     i1l113:	
  3386                           ;main.c: 67:     else if(INTCONbits.PEIE == 1)
  3387                           
  3388  0015  1F0B               	btfss	11,6	;volatile
  3389  0016  2818               	goto	u150_21
  3390  0017  2819               	goto	u150_20
  3391  0018                     u150_21:
  3392  0018  2843               	goto	i1l121
  3393  0019                     u150_20:
  3394  0019                     i1l2948:
  3395                           
  3396                           ;main.c: 68:     {;main.c: 69:         if(PIE1bits.TMR1IE == 1 && PIR1bits.TMR1IF == 1)
  3397  0019  0021               	movlb	1	; select bank1
  3398  001A  1C11               	btfss	17,0	;volatile
  3399  001B  281D               	goto	u151_21
  3400  001C  281E               	goto	u151_20
  3401  001D                     u151_21:
  3402  001D  2843               	goto	i1l120
  3403  001E                     u151_20:
  3404  001E                     i1l2950:
  3405  001E  0020               	movlb	0	; select bank0
  3406  001F  1C11               	btfss	17,0	;volatile
  3407  0020  2822               	goto	u152_21
  3408  0021  2823               	goto	u152_20
  3409  0022                     u152_21:
  3410  0022  2843               	goto	i1l120
  3411  0023                     u152_20:
  3412  0023                     i1l2952:
  3413                           
  3414                           ;main.c: 70:         {;main.c: 71:             TMR1_ISR();
  3415  0023  3181  21F9  3180   	fcall	_TMR1_ISR
  3416  0026                     i1l2954:
  3417                           
  3418                           ;main.c: 72:             if(time_out_timer >= 1000){
  3419  0026  3003               	movlw	3
  3420  0027  0020               	movlb	0	; select bank0
  3421  0028  0262               	subwf	_time_out_timer+1,w
  3422  0029  30E8               	movlw	232
  3423  002A  1903               	skipnz
  3424  002B  0261               	subwf	_time_out_timer,w
  3425  002C  1C03               	skipc
  3426  002D  282F               	goto	u153_21
  3427  002E  2830               	goto	u153_20
  3428  002F                     u153_21:
  3429  002F  283E               	goto	i1l2962
  3430  0030                     u153_20:
  3431  0030                     i1l2956:
  3432                           
  3433                           ;main.c: 73:                 set_led_color(16, 0, 0, 0);
  3434  0030  01F0               	clrf	i1set_led_color@red
  3435  0031  01F1               	clrf	i1set_led_color@green
  3436  0032  01F2               	clrf	i1set_led_color@blue
  3437  0033  3010               	movlw	16
  3438  0034  3180  20EE  3180   	fcall	i1_set_led_color
  3439  0037                     i1l2958:
  3440                           
  3441                           ;main.c: 74:                 time_out_timer = 0;
  3442  0037  0020               	movlb	0	; select bank0
  3443  0038  01E1               	clrf	_time_out_timer
  3444  0039  01E2               	clrf	_time_out_timer+1
  3445  003A                     i1l2960:
  3446                           
  3447                           ;main.c: 75:                 TMR1_StopTimer();
  3448  003A  3182  227F  3180   	fcall	_TMR1_StopTimer
  3449                           
  3450                           ;main.c: 76:             }
  3451  003D  2843               	goto	i1l121
  3452  003E                     i1l2962:
  3453                           
  3454                           ;main.c: 78:                 time_out_timer++;
  3455  003E  3001               	movlw	1
  3456  003F  07E1               	addwf	_time_out_timer,f
  3457  0040  3000               	movlw	0
  3458  0041  3DE2               	addwfc	_time_out_timer+1,f
  3459  0042  2843               	goto	i1l121
  3460  0043                     i1l120:	
  3461                           ;main.c: 87:     {;main.c: 89:     }
  3462                           
  3463  0043                     i1l121:
  3464  0043  107E               	bcf	int$flags,0	;clear compiler interrupt flag (level 1)
  3465  0044  0009               	retfie
  3466  0045                     __end_of_INTERRUPT_InterruptManager:
  3467                           
  3468                           	psect	text13
  3469  00EE                     __ptext13:	
  3470 ;; *************** function i1_set_led_color *****************
  3471 ;; Defined at:
  3472 ;;		line 30 in file "RGB_5050.c"
  3473 ;; Parameters:    Size  Location     Type
  3474 ;;  number_led      1    wreg     unsigned char 
  3475 ;;  red             1    0[COMMON] unsigned char 
  3476 ;;  green           1    1[COMMON] unsigned char 
  3477 ;;  blue            1    2[COMMON] unsigned char 
  3478 ;; Auto vars:     Size  Location     Type
  3479 ;;  number_led      1    4[COMMON] unsigned char 
  3480 ;;  i               1    8[COMMON] unsigned char 
  3481 ;;  i               1    7[COMMON] unsigned char 
  3482 ;;  i               1    6[COMMON] unsigned char 
  3483 ;;  number_led_c    1    5[COMMON] unsigned char 
  3484 ;; Return value:  Size  Location     Type
  3485 ;;                  1    wreg      void 
  3486 ;; Registers used:
  3487 ;;		wreg, status,2, status,0
  3488 ;; Tracked objects:
  3489 ;;		On entry : 0/0
  3490 ;;		On exit  : 0/0
  3491 ;;		Unchanged: 0/0
  3492 ;; Data sizes:     COMMON   BANK0   BANK1   BANK2   BANK3   BANK4   BANK5   BANK6
  3493 ;;      Params:         3       0       0       0       0       0       0       0
  3494 ;;      Locals:         5       0       0       0       0       0       0       0
  3495 ;;      Temps:          1       0       0       0       0       0       0       0
  3496 ;;      Totals:         9       0       0       0       0       0       0       0
  3497 ;;Total ram usage:        9 bytes
  3498 ;; Hardware stack levels used: 1
  3499 ;; This function calls:
  3500 ;;		Nothing
  3501 ;; This function is called by:
  3502 ;;		_INTERRUPT_InterruptManager
  3503 ;; This function uses a non-reentrant model
  3504 ;;
  3505                           
  3506  00EE                     i1_set_led_color:	
  3507                           ;psect for function i1_set_led_color
  3508                           
  3509                           
  3510                           ;incstack = 0
  3511                           ; Regs used in i1_set_led_color: [wreg+status,2+status,0]
  3512                           ;i1set_led_color@number_led stored from wreg
  3513  00EE  00F4               	movwf	i1set_led_color@number_led
  3514  00EF                     i1l2896:
  3515                           
  3516                           ;RGB_5050.c: 32:     for(uint8_t number_led_choose = 1; number_led_choose <= number_led;
      +                           number_led_choose++){
  3517  00EF  01F5               	clrf	i1set_led_color@number_led_choose
  3518  00F0  0AF5               	incf	i1set_led_color@number_led_choose,f
  3519  00F1  295B               	goto	i1l2936
  3520  00F2                     i1l2898:
  3521                           
  3522                           ;RGB_5050.c: 33:         for(uint8_t i = 0; i != 8; i++){
  3523  00F2  01F6               	clrf	i1set_led_color@i
  3524  00F3                     i1l2904:
  3525                           
  3526                           ;RGB_5050.c: 34:             if(green & (0b00000001 << i)){
  3527  00F3  3001               	movlw	1
  3528  00F4  00F3               	movwf	??i1_set_led_color
  3529  00F5  0A76               	incf	i1set_led_color@i,w
  3530  00F6  28F8               	goto	u138_24
  3531  00F7                     u138_25:
  3532  00F7  35F3               	lslf	??i1_set_led_color,f
  3533  00F8                     u138_24:
  3534  00F8  0B89               	decfsz	9,f
  3535  00F9  28F7               	goto	u138_25
  3536  00FA  0873               	movf	??i1_set_led_color,w
  3537  00FB  0571               	andwf	i1set_led_color@green,w
  3538  00FC  1903               	btfsc	3,2
  3539  00FD  28FF               	goto	u139_21
  3540  00FE  2900               	goto	u139_20
  3541  00FF                     u139_21:
  3542  00FF  2907               	goto	i1l141
  3543  0100                     u139_20:
  3544  0100                     i1l2906:
  3545                           
  3546                           ;RGB_5050.c: 35:                 LATBbits.LATB5 = 1;LATBbits.LATB5 = 1;LATBbits.LATB5 = 
      +                          1;LATBbits.LATB5 = 1;LATBbits.LATB5 = 0;
  3547  0100  0022               	movlb	2	; select bank2
  3548  0101  168D               	bsf	13,5	;volatile
  3549  0102  168D               	bsf	13,5	;volatile
  3550  0103  168D               	bsf	13,5	;volatile
  3551  0104  168D               	bsf	13,5	;volatile
  3552  0105  128D               	bcf	13,5	;volatile
  3553                           
  3554                           ;RGB_5050.c: 36:             }
  3555  0106  290B               	goto	i1l2908
  3556  0107                     i1l141:	
  3557                           ;RGB_5050.c: 37:             else{
  3558                           
  3559                           
  3560                           ;RGB_5050.c: 38:                 LATBbits.LATB5 = 1;LATBbits.LATB5 = 0;LATBbits.LATB5 = 
      +                          0;
  3561  0107  0022               	movlb	2	; select bank2
  3562  0108  168D               	bsf	13,5	;volatile
  3563  0109  128D               	bcf	13,5	;volatile
  3564  010A  128D               	bcf	13,5	;volatile
  3565  010B                     i1l2908:
  3566                           
  3567                           ;RGB_5050.c: 40:         }
  3568  010B  3001               	movlw	1
  3569  010C  00F3               	movwf	??i1_set_led_color
  3570  010D  0873               	movf	??i1_set_led_color,w
  3571  010E  07F6               	addwf	i1set_led_color@i,f
  3572  010F  3008               	movlw	8
  3573  0110  0676               	xorwf	i1set_led_color@i,w
  3574  0111  1D03               	btfss	3,2
  3575  0112  2914               	goto	u140_21
  3576  0113  2915               	goto	u140_20
  3577  0114                     u140_21:
  3578  0114  28F3               	goto	i1l2904
  3579  0115                     u140_20:
  3580  0115                     i1l2910:
  3581                           
  3582                           ;RGB_5050.c: 42:         for(uint8_t i = 0; i != 8; i++){
  3583  0115  01F7               	clrf	i1set_led_color@i_352
  3584  0116                     i1l2916:
  3585                           
  3586                           ;RGB_5050.c: 43:             if(red & (0b00000001 << i)){
  3587  0116  3001               	movlw	1
  3588  0117  00F3               	movwf	??i1_set_led_color
  3589  0118  0A77               	incf	i1set_led_color@i_352,w
  3590  0119  291B               	goto	u141_24
  3591  011A                     u141_25:
  3592  011A  35F3               	lslf	??i1_set_led_color,f
  3593  011B                     u141_24:
  3594  011B  0B89               	decfsz	9,f
  3595  011C  291A               	goto	u141_25
  3596  011D  0873               	movf	??i1_set_led_color,w
  3597  011E  0570               	andwf	i1set_led_color@red,w
  3598  011F  1903               	btfsc	3,2
  3599  0120  2922               	goto	u142_21
  3600  0121  2923               	goto	u142_20
  3601  0122                     u142_21:
  3602  0122  2929               	goto	i1l145
  3603  0123                     u142_20:
  3604  0123                     i1l2918:
  3605                           
  3606                           ;RGB_5050.c: 44:                 LATBbits.LATB5 = 1;LATBbits.LATB5 = 1;LATBbits.LATB5 = 
      +                          1;LATBbits.LATB5 = 1;LATBbits.LATB5 = 0;
  3607  0123  168D               	bsf	13,5	;volatile
  3608  0124  168D               	bsf	13,5	;volatile
  3609  0125  168D               	bsf	13,5	;volatile
  3610  0126  168D               	bsf	13,5	;volatile
  3611  0127  128D               	bcf	13,5	;volatile
  3612                           
  3613                           ;RGB_5050.c: 45:             }
  3614  0128  292C               	goto	i1l2920
  3615  0129                     i1l145:	
  3616                           ;RGB_5050.c: 46:             else{
  3617                           
  3618                           
  3619                           ;RGB_5050.c: 47:                 LATBbits.LATB5 = 1;LATBbits.LATB5 = 0;LATBbits.LATB5 = 
      +                          0;
  3620  0129  168D               	bsf	13,5	;volatile
  3621  012A  128D               	bcf	13,5	;volatile
  3622  012B  128D               	bcf	13,5	;volatile
  3623  012C                     i1l2920:
  3624                           
  3625                           ;RGB_5050.c: 49:         }
  3626  012C  3001               	movlw	1
  3627  012D  00F3               	movwf	??i1_set_led_color
  3628  012E  0873               	movf	??i1_set_led_color,w
  3629  012F  07F7               	addwf	i1set_led_color@i_352,f
  3630  0130  3008               	movlw	8
  3631  0131  0677               	xorwf	i1set_led_color@i_352,w
  3632  0132  1D03               	btfss	3,2
  3633  0133  2935               	goto	u143_21
  3634  0134  2936               	goto	u143_20
  3635  0135                     u143_21:
  3636  0135  2916               	goto	i1l2916
  3637  0136                     u143_20:
  3638  0136                     i1l2922:
  3639                           
  3640                           ;RGB_5050.c: 51:         for(uint8_t i = 0; i != 8; i++){
  3641  0136  01F8               	clrf	i1set_led_color@i_353
  3642  0137                     i1l2928:
  3643                           
  3644                           ;RGB_5050.c: 52:             if(blue & (0b00000001 << i)){
  3645  0137  3001               	movlw	1
  3646  0138  00F3               	movwf	??i1_set_led_color
  3647  0139  0A78               	incf	i1set_led_color@i_353,w
  3648  013A  293C               	goto	u144_24
  3649  013B                     u144_25:
  3650  013B  35F3               	lslf	??i1_set_led_color,f
  3651  013C                     u144_24:
  3652  013C  0B89               	decfsz	9,f
  3653  013D  293B               	goto	u144_25
  3654  013E  0873               	movf	??i1_set_led_color,w
  3655  013F  0572               	andwf	i1set_led_color@blue,w
  3656  0140  1903               	btfsc	3,2
  3657  0141  2943               	goto	u145_21
  3658  0142  2944               	goto	u145_20
  3659  0143                     u145_21:
  3660  0143  294A               	goto	i1l149
  3661  0144                     u145_20:
  3662  0144                     i1l2930:
  3663                           
  3664                           ;RGB_5050.c: 53:                 LATBbits.LATB5 = 1;LATBbits.LATB5 = 1;LATBbits.LATB5 = 
      +                          1;LATBbits.LATB5 = 1;LATBbits.LATB5 = 0;
  3665  0144  168D               	bsf	13,5	;volatile
  3666  0145  168D               	bsf	13,5	;volatile
  3667  0146  168D               	bsf	13,5	;volatile
  3668  0147  168D               	bsf	13,5	;volatile
  3669  0148  128D               	bcf	13,5	;volatile
  3670                           
  3671                           ;RGB_5050.c: 54:             }
  3672  0149  294D               	goto	i1l2932
  3673  014A                     i1l149:	
  3674                           ;RGB_5050.c: 55:             else{
  3675                           
  3676                           
  3677                           ;RGB_5050.c: 56:                 LATBbits.LATB5 = 1;LATBbits.LATB5 = 0;LATBbits.LATB5 = 
      +                          0;
  3678  014A  168D               	bsf	13,5	;volatile
  3679  014B  128D               	bcf	13,5	;volatile
  3680  014C  128D               	bcf	13,5	;volatile
  3681  014D                     i1l2932:
  3682                           
  3683                           ;RGB_5050.c: 58:         }
  3684  014D  3001               	movlw	1
  3685  014E  00F3               	movwf	??i1_set_led_color
  3686  014F  0873               	movf	??i1_set_led_color,w
  3687  0150  07F8               	addwf	i1set_led_color@i_353,f
  3688  0151  3008               	movlw	8
  3689  0152  0678               	xorwf	i1set_led_color@i_353,w
  3690  0153  1D03               	btfss	3,2
  3691  0154  2956               	goto	u146_21
  3692  0155  2957               	goto	u146_20
  3693  0156                     u146_21:
  3694  0156  2937               	goto	i1l2928
  3695  0157                     u146_20:
  3696  0157                     i1l2934:
  3697                           
  3698                           ;RGB_5050.c: 59:     }
  3699  0157  3001               	movlw	1
  3700  0158  00F3               	movwf	??i1_set_led_color
  3701  0159  0873               	movf	??i1_set_led_color,w
  3702  015A  07F5               	addwf	i1set_led_color@number_led_choose,f
  3703  015B                     i1l2936:
  3704  015B  0875               	movf	i1set_led_color@number_led_choose,w
  3705  015C  0274               	subwf	i1set_led_color@number_led,w
  3706  015D  1803               	skipnc
  3707  015E  2960               	goto	u147_21
  3708  015F  2961               	goto	u147_20
  3709  0160                     u147_21:
  3710  0160  28F2               	goto	i1l2898
  3711  0161                     u147_20:
  3712  0161                     i1l151:
  3713                           
  3714                           ;RGB_5050.c: 60:     LATBbits.LATB5 = 1;LATBbits.LATB5 = 0;_delay((unsigned long)((200)*
      +                          (32000000/4000000.0)));
  3715  0161  0022               	movlb	2	; select bank2
  3716  0162  168D               	bsf	13,5	;volatile
  3717  0163  128D               	bcf	13,5	;volatile
  3718  0164                     i1l2938:
  3719  0164  30E4               	movlw	228
  3720  0165                     u203_27:
  3721  0165  3200               	nop2
  3722  0166  3200               	nop2
  3723  0167  0B89               	decfsz	9,f
  3724  0168  2965               	goto	u203_27
  3725  0169  3200               	nop2
  3726  016A  3200               	nop2
  3727  016B                     i1l152:
  3728  016B  0008               	return
  3729  016C                     __end_ofi1_set_led_color:
  3730                           
  3731                           	psect	text14
  3732  027F                     __ptext14:	
  3733 ;; *************** function _TMR1_StopTimer *****************
  3734 ;; Defined at:
  3735 ;;		line 99 in file "mcc_generated_files/tmr1.c"
  3736 ;; Parameters:    Size  Location     Type
  3737 ;;		None
  3738 ;; Auto vars:     Size  Location     Type
  3739 ;;		None
  3740 ;; Return value:  Size  Location     Type
  3741 ;;                  1    wreg      void 
  3742 ;; Registers used:
  3743 ;;		None
  3744 ;; Tracked objects:
  3745 ;;		On entry : 0/0
  3746 ;;		On exit  : 0/0
  3747 ;;		Unchanged: 0/0
  3748 ;; Data sizes:     COMMON   BANK0   BANK1   BANK2   BANK3   BANK4   BANK5   BANK6
  3749 ;;      Params:         0       0       0       0       0       0       0       0
  3750 ;;      Locals:         0       0       0       0       0       0       0       0
  3751 ;;      Temps:          0       0       0       0       0       0       0       0
  3752 ;;      Totals:         0       0       0       0       0       0       0       0
  3753 ;;Total ram usage:        0 bytes
  3754 ;; Hardware stack levels used: 1
  3755 ;; This function calls:
  3756 ;;		Nothing
  3757 ;; This function is called by:
  3758 ;;		_INTERRUPT_InterruptManager
  3759 ;; This function uses a non-reentrant model
  3760 ;;
  3761                           
  3762  027F                     _TMR1_StopTimer:	
  3763                           ;psect for function _TMR1_StopTimer
  3764                           
  3765  027F                     i1l2828:	
  3766                           ;incstack = 0
  3767                           ; Regs used in _TMR1_StopTimer: []
  3768                           
  3769                           
  3770                           ;mcc_generated_files/tmr1.c: 102:     T1CONbits.TMR1ON = 0;
  3771  027F  0020               	movlb	0	; select bank0
  3772  0280  1018               	bcf	24,0	;volatile
  3773  0281                     i1l701:
  3774  0281  0008               	return
  3775  0282                     __end_of_TMR1_StopTimer:
  3776                           
  3777                           	psect	text15
  3778  01F9                     __ptext15:	
  3779 ;; *************** function _TMR1_ISR *****************
  3780 ;; Defined at:
  3781 ;;		line 157 in file "mcc_generated_files/tmr1.c"
  3782 ;; Parameters:    Size  Location     Type
  3783 ;;		None
  3784 ;; Auto vars:     Size  Location     Type
  3785 ;;		None
  3786 ;; Return value:  Size  Location     Type
  3787 ;;                  1    wreg      void 
  3788 ;; Registers used:
  3789 ;;		wreg, status,2, status,0, pclath, cstack
  3790 ;; Tracked objects:
  3791 ;;		On entry : 0/0
  3792 ;;		On exit  : 0/0
  3793 ;;		Unchanged: 0/0
  3794 ;; Data sizes:     COMMON   BANK0   BANK1   BANK2   BANK3   BANK4   BANK5   BANK6
  3795 ;;      Params:         0       0       0       0       0       0       0       0
  3796 ;;      Locals:         0       0       0       0       0       0       0       0
  3797 ;;      Temps:          0       0       0       0       0       0       0       0
  3798 ;;      Totals:         0       0       0       0       0       0       0       0
  3799 ;;Total ram usage:        0 bytes
  3800 ;; Hardware stack levels used: 1
  3801 ;; Hardware stack levels required when called: 1
  3802 ;; This function calls:
  3803 ;;		Absolute function
  3804 ;;		_TMR1_DefaultInterruptHandler
  3805 ;;		_TMR1_WriteTimer
  3806 ;; This function is called by:
  3807 ;;		_INTERRUPT_InterruptManager
  3808 ;; This function uses a non-reentrant model
  3809 ;;
  3810                           
  3811  01F9                     _TMR1_ISR:	
  3812                           ;psect for function _TMR1_ISR
  3813                           
  3814  01F9                     i1l2776:	
  3815                           ;incstack = 0
  3816                           ; Regs used in _TMR1_ISR: [wreg+status,2+status,0+pclath+cstack]
  3817                           
  3818                           
  3819                           ;mcc_generated_files/tmr1.c: 161:     PIR1bits.TMR1IF = 0;
  3820  01F9  0020               	movlb	0	; select bank0
  3821  01FA  1011               	bcf	17,0	;volatile
  3822  01FB                     i1l2778:
  3823                           
  3824                           ;mcc_generated_files/tmr1.c: 162:     TMR1_WriteTimer(timer1ReloadVal);
  3825  01FB  087C               	movf	_timer1ReloadVal+1,w	;volatile
  3826  01FC  00F1               	movwf	TMR1_WriteTimer@timerVal+1
  3827  01FD  087B               	movf	_timer1ReloadVal,w	;volatile
  3828  01FE  00F0               	movwf	TMR1_WriteTimer@timerVal
  3829  01FF  3182  2221  3181   	fcall	_TMR1_WriteTimer
  3830  0202                     i1l2780:
  3831                           
  3832                           ;mcc_generated_files/tmr1.c: 164:     if(TMR1_InterruptHandler)
  3833  0202  0879               	movf	_TMR1_InterruptHandler,w
  3834  0203  047A               	iorwf	_TMR1_InterruptHandler+1,w
  3835  0204  1903               	btfsc	3,2
  3836  0205  2A07               	goto	u119_21
  3837  0206  2A08               	goto	u119_20
  3838  0207                     u119_21:
  3839  0207  2A0D               	goto	i1l722
  3840  0208                     u119_20:
  3841  0208                     i1l2782:
  3842                           
  3843                           ;mcc_generated_files/tmr1.c: 165:     {;mcc_generated_files/tmr1.c: 166:         TMR1_In
      +                          terruptHandler();
  3844  0208  087A               	movf	_TMR1_InterruptHandler+1,w
  3845  0209  008A               	movwf	10
  3846  020A  0879               	movf	_TMR1_InterruptHandler,w
  3847  020B  000A               	callw
  3848  020C  3181               	pagesel	$
  3849  020D                     i1l722:
  3850  020D  0008               	return
  3851  020E                     __end_of_TMR1_ISR:
  3852                           
  3853                           	psect	text16
  3854  0221                     __ptext16:	
  3855 ;; *************** function _TMR1_WriteTimer *****************
  3856 ;; Defined at:
  3857 ;;		line 120 in file "mcc_generated_files/tmr1.c"
  3858 ;; Parameters:    Size  Location     Type
  3859 ;;  timerVal        2    0[COMMON] unsigned short 
  3860 ;; Auto vars:     Size  Location     Type
  3861 ;;		None
  3862 ;; Return value:  Size  Location     Type
  3863 ;;                  1    wreg      void 
  3864 ;; Registers used:
  3865 ;;		wreg, status,2
  3866 ;; Tracked objects:
  3867 ;;		On entry : 0/0
  3868 ;;		On exit  : 0/0
  3869 ;;		Unchanged: 0/0
  3870 ;; Data sizes:     COMMON   BANK0   BANK1   BANK2   BANK3   BANK4   BANK5   BANK6
  3871 ;;      Params:         2       0       0       0       0       0       0       0
  3872 ;;      Locals:         0       0       0       0       0       0       0       0
  3873 ;;      Temps:          0       0       0       0       0       0       0       0
  3874 ;;      Totals:         2       0       0       0       0       0       0       0
  3875 ;;Total ram usage:        2 bytes
  3876 ;; Hardware stack levels used: 1
  3877 ;; This function calls:
  3878 ;;		Nothing
  3879 ;; This function is called by:
  3880 ;;		_TMR1_ISR
  3881 ;;		_TMR1_Reload
  3882 ;; This function uses a non-reentrant model
  3883 ;;
  3884                           
  3885  0221                     _TMR1_WriteTimer:	
  3886                           ;psect for function _TMR1_WriteTimer
  3887                           
  3888  0221                     i1l2756:	
  3889                           ;incstack = 0
  3890                           ; Regs used in _TMR1_WriteTimer: [wreg+status,2]
  3891                           
  3892                           
  3893                           ;mcc_generated_files/tmr1.c: 120: void TMR1_WriteTimer(uint16_t timerVal);mcc_generated_
      +                          files/tmr1.c: 121: {;mcc_generated_files/tmr1.c: 122:     if (T1CONbits.nT1SYNC == 1)
  3894  0221  0020               	movlb	0	; select bank0
  3895  0222  1D18               	btfss	24,2	;volatile
  3896  0223  2A25               	goto	u118_21
  3897  0224  2A26               	goto	u118_20
  3898  0225                     u118_21:
  3899  0225  2A2D               	goto	i1l2766
  3900  0226                     u118_20:
  3901  0226                     i1l2758:
  3902                           
  3903                           ;mcc_generated_files/tmr1.c: 123:     {;mcc_generated_files/tmr1.c: 125:         T1CONbi
      +                          ts.TMR1ON = 0;
  3904  0226  1018               	bcf	24,0	;volatile
  3905  0227                     i1l2760:
  3906                           
  3907                           ;mcc_generated_files/tmr1.c: 128:         TMR1H = (uint8_t)(timerVal >> 8);
  3908  0227  0871               	movf	TMR1_WriteTimer@timerVal+1,w
  3909  0228  0097               	movwf	23	;volatile
  3910  0229                     i1l2762:
  3911                           
  3912                           ;mcc_generated_files/tmr1.c: 129:         TMR1L = (uint8_t)timerVal;
  3913  0229  0870               	movf	TMR1_WriteTimer@timerVal,w
  3914  022A  0096               	movwf	22	;volatile
  3915  022B                     i1l2764:
  3916                           
  3917                           ;mcc_generated_files/tmr1.c: 132:         T1CONbits.TMR1ON =1;
  3918  022B  1418               	bsf	24,0	;volatile
  3919                           
  3920                           ;mcc_generated_files/tmr1.c: 133:     }
  3921  022C  2A31               	goto	i1l709
  3922  022D                     i1l2766:
  3923                           
  3924                           ;mcc_generated_files/tmr1.c: 135:     {;mcc_generated_files/tmr1.c: 137:         TMR1H =
      +                           (uint8_t)(timerVal >> 8);
  3925  022D  0871               	movf	TMR1_WriteTimer@timerVal+1,w
  3926  022E  0097               	movwf	23	;volatile
  3927  022F                     i1l2768:
  3928                           
  3929                           ;mcc_generated_files/tmr1.c: 138:         TMR1L = (uint8_t)timerVal;
  3930  022F  0870               	movf	TMR1_WriteTimer@timerVal,w
  3931  0230  0096               	movwf	22	;volatile
  3932  0231                     i1l709:
  3933  0231  0008               	return
  3934  0232                     __end_of_TMR1_WriteTimer:
  3935                           
  3936                           	psect	text17
  3937  0282                     __ptext17:	
  3938 ;; *************** function _TMR1_DefaultInterruptHandler *****************
  3939 ;; Defined at:
  3940 ;;		line 175 in file "mcc_generated_files/tmr1.c"
  3941 ;; Parameters:    Size  Location     Type
  3942 ;;		None
  3943 ;; Auto vars:     Size  Location     Type
  3944 ;;		None
  3945 ;; Return value:  Size  Location     Type
  3946 ;;                  1    wreg      void 
  3947 ;; Registers used:
  3948 ;;		None
  3949 ;; Tracked objects:
  3950 ;;		On entry : 0/0
  3951 ;;		On exit  : 0/0
  3952 ;;		Unchanged: 0/0
  3953 ;; Data sizes:     COMMON   BANK0   BANK1   BANK2   BANK3   BANK4   BANK5   BANK6
  3954 ;;      Params:         0       0       0       0       0       0       0       0
  3955 ;;      Locals:         0       0       0       0       0       0       0       0
  3956 ;;      Temps:          0       0       0       0       0       0       0       0
  3957 ;;      Totals:         0       0       0       0       0       0       0       0
  3958 ;;Total ram usage:        0 bytes
  3959 ;; Hardware stack levels used: 1
  3960 ;; This function calls:
  3961 ;;		Nothing
  3962 ;; This function is called by:
  3963 ;;		_TMR1_Initialize
  3964 ;;		_TMR1_ISR
  3965 ;; This function uses a non-reentrant model
  3966 ;;
  3967                           
  3968  0282                     _TMR1_DefaultInterruptHandler:	
  3969                           ;psect for function _TMR1_DefaultInterruptHandler
  3970                           
  3971  0282                     i1l728:	
  3972                           ;incstack = 0
  3973                           ; Regs used in _TMR1_DefaultInterruptHandler: []
  3974                           
  3975  0282  0008               	return
  3976  0283                     __end_of_TMR1_DefaultInterruptHandler:
  3977                           
  3978                           	psect	text18
  3979  0273                     __ptext18:	
  3980 ;; *************** function _INT_ISR *****************
  3981 ;; Defined at:
  3982 ;;		line 32 in file "mcc_generated_files/ext_int.c"
  3983 ;; Parameters:    Size  Location     Type
  3984 ;;		None
  3985 ;; Auto vars:     Size  Location     Type
  3986 ;;		None
  3987 ;; Return value:  Size  Location     Type
  3988 ;;                  1    wreg      void 
  3989 ;; Registers used:
  3990 ;;		wreg, status,2, status,0, pclath, cstack
  3991 ;; Tracked objects:
  3992 ;;		On entry : 0/0
  3993 ;;		On exit  : 0/0
  3994 ;;		Unchanged: 0/0
  3995 ;; Data sizes:     COMMON   BANK0   BANK1   BANK2   BANK3   BANK4   BANK5   BANK6
  3996 ;;      Params:         0       0       0       0       0       0       0       0
  3997 ;;      Locals:         0       0       0       0       0       0       0       0
  3998 ;;      Temps:          0       0       0       0       0       0       0       0
  3999 ;;      Totals:         0       0       0       0       0       0       0       0
  4000 ;;Total ram usage:        0 bytes
  4001 ;; Hardware stack levels used: 1
  4002 ;; Hardware stack levels required when called: 2
  4003 ;; This function calls:
  4004 ;;		_INT_CallBack
  4005 ;; This function is called by:
  4006 ;;		_INTERRUPT_InterruptManager
  4007 ;; This function uses a non-reentrant model
  4008 ;;
  4009                           
  4010  0273                     _INT_ISR:	
  4011                           ;psect for function _INT_ISR
  4012                           
  4013  0273                     i1l2772:	
  4014                           ;incstack = 0
  4015                           ; Regs used in _INT_ISR: [wreg+status,2+status,0+pclath+cstack]
  4016                           
  4017                           
  4018                           ;mcc_generated_files/ext_int.c: 34:     (INTCONbits.INTF = 0);
  4019  0273  108B               	bcf	11,1	;volatile
  4020  0274                     i1l2774:
  4021                           
  4022                           ;mcc_generated_files/ext_int.c: 37:     INT_CallBack();
  4023  0274  3182  223F  3182   	fcall	_INT_CallBack
  4024  0277                     i1l655:
  4025  0277  0008               	return
  4026  0278                     __end_of_INT_ISR:
  4027                           
  4028                           	psect	text19
  4029  023F                     __ptext19:	
  4030 ;; *************** function _INT_CallBack *****************
  4031 ;; Defined at:
  4032 ;;		line 41 in file "mcc_generated_files/ext_int.c"
  4033 ;; Parameters:    Size  Location     Type
  4034 ;;		None
  4035 ;; Auto vars:     Size  Location     Type
  4036 ;;		None
  4037 ;; Return value:  Size  Location     Type
  4038 ;;                  1    wreg      void 
  4039 ;; Registers used:
  4040 ;;		wreg, status,2, status,0, pclath, cstack
  4041 ;; Tracked objects:
  4042 ;;		On entry : 0/0
  4043 ;;		On exit  : 0/0
  4044 ;;		Unchanged: 0/0
  4045 ;; Data sizes:     COMMON   BANK0   BANK1   BANK2   BANK3   BANK4   BANK5   BANK6
  4046 ;;      Params:         0       0       0       0       0       0       0       0
  4047 ;;      Locals:         0       0       0       0       0       0       0       0
  4048 ;;      Temps:          0       0       0       0       0       0       0       0
  4049 ;;      Totals:         0       0       0       0       0       0       0       0
  4050 ;;Total ram usage:        0 bytes
  4051 ;; Hardware stack levels used: 1
  4052 ;; Hardware stack levels required when called: 1
  4053 ;; This function calls:
  4054 ;;		Absolute function
  4055 ;;		_INT_DefaultInterruptHandler
  4056 ;; This function is called by:
  4057 ;;		_INT_ISR
  4058 ;; This function uses a non-reentrant model
  4059 ;;
  4060                           
  4061  023F                     _INT_CallBack:	
  4062                           ;psect for function _INT_CallBack
  4063                           
  4064  023F                     i1l2752:	
  4065                           ;incstack = 0
  4066                           ; Regs used in _INT_CallBack: [wreg+status,2+status,0+pclath+cstack]
  4067                           
  4068                           
  4069                           ;mcc_generated_files/ext_int.c: 44:     if(INT_InterruptHandler)
  4070  023F  0020               	movlb	0	; select bank0
  4071  0240  085F               	movf	_INT_InterruptHandler,w
  4072  0241  0460               	iorwf	_INT_InterruptHandler+1,w
  4073  0242  1903               	btfsc	3,2
  4074  0243  2A45               	goto	u117_21
  4075  0244  2A46               	goto	u117_20
  4076  0245                     u117_21:
  4077  0245  2A4B               	goto	i1l659
  4078  0246                     u117_20:
  4079  0246                     i1l2754:
  4080                           
  4081                           ;mcc_generated_files/ext_int.c: 45:     {;mcc_generated_files/ext_int.c: 46:         INT
      +                          _InterruptHandler();
  4082  0246  0860               	movf	_INT_InterruptHandler+1,w
  4083  0247  008A               	movwf	10
  4084  0248  085F               	movf	_INT_InterruptHandler,w
  4085  0249  000A               	callw
  4086  024A  3182               	pagesel	$
  4087  024B                     i1l659:
  4088  024B  0008               	return
  4089  024C                     __end_of_INT_CallBack:
  4090                           
  4091                           	psect	text20
  4092  0283                     __ptext20:	
  4093 ;; *************** function _INT_DefaultInterruptHandler *****************
  4094 ;; Defined at:
  4095 ;;		line 54 in file "mcc_generated_files/ext_int.c"
  4096 ;; Parameters:    Size  Location     Type
  4097 ;;		None
  4098 ;; Auto vars:     Size  Location     Type
  4099 ;;		None
  4100 ;; Return value:  Size  Location     Type
  4101 ;;                  1    wreg      void 
  4102 ;; Registers used:
  4103 ;;		None
  4104 ;; Tracked objects:
  4105 ;;		On entry : 0/0
  4106 ;;		On exit  : 0/0
  4107 ;;		Unchanged: 0/0
  4108 ;; Data sizes:     COMMON   BANK0   BANK1   BANK2   BANK3   BANK4   BANK5   BANK6
  4109 ;;      Params:         0       0       0       0       0       0       0       0
  4110 ;;      Locals:         0       0       0       0       0       0       0       0
  4111 ;;      Temps:          0       0       0       0       0       0       0       0
  4112 ;;      Totals:         0       0       0       0       0       0       0       0
  4113 ;;Total ram usage:        0 bytes
  4114 ;; Hardware stack levels used: 1
  4115 ;; This function calls:
  4116 ;;		Nothing
  4117 ;; This function is called by:
  4118 ;;		_EXT_INT_Initialize
  4119 ;;		_INT_CallBack
  4120 ;; This function uses a non-reentrant model
  4121 ;;
  4122                           
  4123  0283                     _INT_DefaultInterruptHandler:	
  4124                           ;psect for function _INT_DefaultInterruptHandler
  4125                           
  4126  0283                     i1l665:	
  4127                           ;incstack = 0
  4128                           ; Regs used in _INT_DefaultInterruptHandler: []
  4129                           
  4130  0283  0008               	return
  4131  0284                     __end_of_INT_DefaultInterruptHandler:
  4132  007E                     btemp	set	126	;btemp
  4133  007E                     int$flags	set	126
  4134  007E                     wtemp0	set	126
  4135                           
  4136                           	psect	idloc
  4137                           
  4138                           ;Config register IDLOC0 @ 0x8000
  4139                           ;	unspecified, using default values
  4140  8000                     	org	32768
  4141  8000  3FFF               	dw	16383
  4142                           
  4143                           ;Config register IDLOC1 @ 0x8001
  4144                           ;	unspecified, using default values
  4145  8001                     	org	32769
  4146  8001  3FFF               	dw	16383
  4147                           
  4148                           ;Config register IDLOC2 @ 0x8002
  4149                           ;	unspecified, using default values
  4150  8002                     	org	32770
  4151  8002  3FFF               	dw	16383
  4152                           
  4153                           ;Config register IDLOC3 @ 0x8003
  4154                           ;	unspecified, using default values
  4155  8003                     	org	32771
  4156  8003  3FFF               	dw	16383
  4157                           
  4158                           	psect	config
  4159                           
  4160                           ;Config register CONFIG1 @ 0x8007
  4161                           ;	Oscillator Selection
  4162                           ;	FOSC = INTOSC, INTOSC oscillator: I/O function on CLKIN pin
  4163                           ;	Watchdog Timer Enable
  4164                           ;	WDTE = OFF, WDT disabled
  4165                           ;	Power-up Timer Enable
  4166                           ;	PWRTE = OFF, PWRT disabled
  4167                           ;	MCLR Pin Function Select
  4168                           ;	MCLRE = ON, MCLR/VPP pin function is MCLR
  4169                           ;	Flash Program Memory Code Protection
  4170                           ;	CP = OFF, Program memory code protection is disabled
  4171                           ;	Data Memory Code Protection
  4172                           ;	CPD = OFF, Data memory code protection is disabled
  4173                           ;	Brown-out Reset Enable
  4174                           ;	BOREN = ON, Brown-out Reset enabled
  4175                           ;	Clock Out Enable
  4176                           ;	CLKOUTEN = OFF, CLKOUT function is disabled. I/O or oscillator function on the CLKOUT 
      +                          pin
  4177                           ;	Internal/External Switchover
  4178                           ;	IESO = ON, Internal/External Switchover mode is enabled
  4179                           ;	Fail-Safe Clock Monitor Enable
  4180                           ;	FCMEN = ON, Fail-Safe Clock Monitor is enabled
  4181  8007                     	org	32775
  4182  8007  3FE4               	dw	16356
  4183                           
  4184                           ;Config register CONFIG2 @ 0x8008
  4185                           ;	Flash Memory Self-Write Protection
  4186                           ;	WRT = OFF, Write protection off
  4187                           ;	Voltage Regulator Capacitor Enable
  4188                           ;	VCAPEN = OFF, All VCAP pin functionality is disabled
  4189                           ;	PLL Enable
  4190                           ;	PLLEN = ON, 4x PLL enabled
  4191                           ;	Stack Overflow/Underflow Reset Enable
  4192                           ;	STVREN = ON, Stack Overflow or Underflow will cause a Reset
  4193                           ;	Brown-out Reset Voltage Selection
  4194                           ;	BORV = LO, Brown-out Reset Voltage (Vbor), low trip point selected.
  4195                           ;	Low-Voltage Programming Enable
  4196                           ;	LVP = ON, Low-voltage programming enabled
  4197  8008                     	org	32776
  4198  8008  3FFF               	dw	16383

Data Sizes:
    Strings     0
    Constant    32
    Data        0
    BSS         199
    Persistent  32
    Stack       0

Auto Spaces:
    Space          Size  Autos    Used
    COMMON           14      9      14
    BANK0            80     12      80
    BANK1            80      0      62
    BANK2            80      0      64
    BANK3            80      0       0
    BANK4            80      0       0
    BANK5            80      0       0
    BANK6            16      0       0

Pointer List with Targets:

    I2C_Read1ByteRegister@returnValue.data	PTR unsigned char  size(1) Largest target is 22
		 -> get_calibration_data_BMP180@buffer_I2C(BANK0[22]), 

    I2C_Read2ByteRegister@returnValue.data	PTR unsigned char  size(1) Largest target is 22
		 -> get_calibration_data_BMP180@buffer_I2C(BANK0[22]), 

    I2C_Write1ByteRegister@data.data	PTR unsigned char  size(1) Largest target is 22
		 -> get_calibration_data_BMP180@buffer_I2C(BANK0[22]), 

    I2C_Write2ByteRegister@data.data	PTR unsigned char  size(1) Largest target is 22
		 -> get_calibration_data_BMP180@buffer_I2C(BANK0[22]), 

    I2C_DO_TX$2020$0	PTR void  size(1) Largest target is 4
		 -> I2C_ReadDataBlock@bufferBlock(COMMON[3]), I2C_Write2ByteRegister@data(COMMON[2]), I2C_Write1ByteRegister@data(COMMON[1]), I2C_Read2ByteRegister@returnValue(COMMON[2]), 
		 -> NULL(NULL[0]), I2C_Read1ByteRegister@returnValue(COMMON[1]), 

    cb$0	PTR void  size(1) Largest target is 4
		 -> I2C_ReadDataBlock@bufferBlock(COMMON[3]), I2C_Write2ByteRegister@data(COMMON[2]), I2C_Write1ByteRegister@data(COMMON[1]), I2C_Read2ByteRegister@returnValue(COMMON[2]), 
		 -> NULL(NULL[0]), I2C_Read1ByteRegister@returnValue(COMMON[1]), 

    Absolute function$0	PTR void  size(1) Largest target is 4
		 -> I2C_ReadDataBlock@bufferBlock(COMMON[3]), I2C_Write2ByteRegister@data(COMMON[2]), I2C_Write1ByteRegister@data(COMMON[1]), I2C_Read2ByteRegister@returnValue(COMMON[2]), 
		 -> NULL(NULL[0]), I2C_Read1ByteRegister@returnValue(COMMON[1]), 

    cb$0	PTR void  size(1) Largest target is 4
		 -> I2C_ReadDataBlock@bufferBlock(COMMON[3]), I2C_Write2ByteRegister@data(COMMON[2]), I2C_Write1ByteRegister@data(COMMON[1]), I2C_Read2ByteRegister@returnValue(COMMON[2]), 
		 -> NULL(NULL[0]), I2C_Read1ByteRegister@returnValue(COMMON[1]), 

    S588$0$0	PTR void  size(1) Largest target is 4
		 -> I2C_ReadDataBlock@bufferBlock(COMMON[3]), I2C_Write2ByteRegister@data(COMMON[2]), I2C_Write1ByteRegister@data(COMMON[1]), I2C_Read2ByteRegister@returnValue(COMMON[2]), 
		 -> NULL(NULL[0]), I2C_Read1ByteRegister@returnValue(COMMON[1]), 

    TMR1_SetInterruptHandler@InterruptHandler	PTR FTN()void  size(2) Largest target is 1
		 -> TMR1_DefaultInterruptHandler(), 

    TMR1_InterruptHandler	PTR FTN()void  size(2) Largest target is 1
		 -> TMR1_DefaultInterruptHandler(), Absolute function(), 

    INT_SetInterruptHandler@InterruptHandler	PTR FTN()void  size(2) Largest target is 1
		 -> INT_DefaultInterruptHandler(), 

    INT_InterruptHandler	PTR FTN()void  size(2) Largest target is 1
		 -> INT_DefaultInterruptHandler(), Absolute function(), 

    S588$data_ptr	PTR unsigned char  size(1) Largest target is 22
		 -> get_calibration_data_BMP180@buffer_I2C(BANK0[22]), I2C_ReadDataBlock@reg(COMMON[1]), I2C_ReadDataBlock@bufferBlock(COMMON[3]), I2C_Write2ByteRegister@reg(COMMON[1]), 
		 -> I2C_Write2ByteRegister@data(COMMON[2]), I2C_Write1ByteRegister@reg(COMMON[1]), I2C_Write1ByteRegister@data(COMMON[1]), I2C_Read2ByteRegister@reg(COMMON[1]), 
		 -> I2C_Read2ByteRegister@returnValue(COMMON[2]), NULL(NULL[0]), I2C_Read1ByteRegister@reg(COMMON[1]), I2C_Read1ByteRegister@returnValue(COMMON[1]), 

    I2C_Status.data_ptr	PTR unsigned char  size(1) Largest target is 22
		 -> get_calibration_data_BMP180@buffer_I2C(BANK0[22]), I2C_ReadDataBlock@reg(COMMON[1]), I2C_ReadDataBlock@bufferBlock(COMMON[3]), I2C_Write2ByteRegister@reg(COMMON[1]), 
		 -> I2C_Write2ByteRegister@data(COMMON[2]), I2C_Write1ByteRegister@reg(COMMON[1]), I2C_Write1ByteRegister@data(COMMON[1]), I2C_Read2ByteRegister@reg(COMMON[1]), 
		 -> I2C_Read2ByteRegister@returnValue(COMMON[2]), NULL(NULL[0]), I2C_Read1ByteRegister@reg(COMMON[1]), I2C_Read1ByteRegister@returnValue(COMMON[1]), 

    S588$callbackPayload	PTR void [6] size(1) Largest target is 4
		 -> I2C_ReadDataBlock@bufferBlock(COMMON[3]), I2C_Write2ByteRegister@data(COMMON[2]), I2C_Write1ByteRegister@data(COMMON[1]), I2C_Read2ByteRegister@returnValue(COMMON[2]), 
		 -> NULL(NULL[0]), I2C_Read1ByteRegister@returnValue(COMMON[1]), 

    I2C_Status.callbackPayload	PTR void [6] size(1) Largest target is 4
		 -> I2C_ReadDataBlock@bufferBlock(COMMON[3]), I2C_Write2ByteRegister@data(COMMON[2]), I2C_Write1ByteRegister@data(COMMON[1]), I2C_Read2ByteRegister@returnValue(COMMON[2]), 
		 -> NULL(NULL[0]), I2C_Read1ByteRegister@returnValue(COMMON[1]), 

    S588$callbackTable	PTR FTN(PTR void ,)enum E360[6] size(2) Largest target is 1
		 -> I2C_CallbackReturnReset(), I2C_CallbackReturnStop(), Absolute function(), rdBlkRegCompleteHandler(), 
		 -> wr2RegCompleteHandler(), wr1RegCompleteHandler(), rd2RegCompleteHandler(), rd1RegCompleteHandler(), 

    I2C_Status.callbackTable	PTR FTN(PTR void ,)enum E360[6] size(2) Largest target is 1
		 -> I2C_CallbackReturnReset(), I2C_CallbackReturnStop(), Absolute function(), rdBlkRegCompleteHandler(), 
		 -> wr2RegCompleteHandler(), wr1RegCompleteHandler(), rd2RegCompleteHandler(), rd1RegCompleteHandler(), 

    i2c_fsmStateTable	const PTR FTN()enum E3352[16] size(2) Largest target is 1
		 -> I2C_DO_ADDRESS_NACK(), I2C_DO_RESET(), I2C_DO_RX_NACK_RESTART(), I2C_DO_RX_NACK_STOP(), 
		 -> I2C_DO_RX_ACK(), I2C_DO_SEND_STOP(), I2C_DO_SEND_RESTART(), I2C_DO_SEND_RESTART_WRITE(), 
		 -> I2C_DO_SEND_RESTART_READ(), I2C_DO_TX_EMPTY(), I2C_DO_RCEN(), I2C_DO_RX(), 
		 -> I2C_DO_TX(), I2C_DO_SEND_ADR_WRITE(), I2C_DO_SEND_ADR_READ(), I2C_DO_IDLE(), 

    rdBlkRegCompleteHandler@ptr.data	PTR unsigned char  size(1) Largest target is 22
		 -> get_calibration_data_BMP180@buffer_I2C(BANK0[22]), 

    S436$data	PTR unsigned char  size(1) Largest target is 22
		 -> get_calibration_data_BMP180@buffer_I2C(BANK0[22]), 

    bufferBlock.data	PTR unsigned char  size(1) Largest target is 22
		 -> get_calibration_data_BMP180@buffer_I2C(BANK0[22]), 


Critical Paths under _main in COMMON

    None.

Critical Paths under _INTERRUPT_InterruptManager in COMMON

    _INTERRUPT_InterruptManager->i1_set_led_color
    _TMR1_ISR->_TMR1_WriteTimer

Critical Paths under _main in BANK0

    _main->_set_led_color
    _TMR1_Initialize->_TMR1_SetInterruptHandler
    _EXT_INT_Initialize->_INT_SetInterruptHandler

Critical Paths under _INTERRUPT_InterruptManager in BANK0

    None.

Critical Paths under _main in BANK1

    None.

Critical Paths under _INTERRUPT_InterruptManager in BANK1

    None.

Critical Paths under _main in BANK2

    None.

Critical Paths under _INTERRUPT_InterruptManager in BANK2

    None.

Critical Paths under _main in BANK3

    None.

Critical Paths under _INTERRUPT_InterruptManager in BANK3

    None.

Critical Paths under _main in BANK4

    None.

Critical Paths under _INTERRUPT_InterruptManager in BANK4

    None.

Critical Paths under _main in BANK5

    None.

Critical Paths under _INTERRUPT_InterruptManager in BANK5

    None.

Critical Paths under _main in BANK6

    None.

Critical Paths under _INTERRUPT_InterruptManager in BANK6

    None.

Call Graph Tables:

 ---------------------------------------------------------------------------------
 (Depth) Function   	        Calls       Base Space   Used Autos Params    Refs
 ---------------------------------------------------------------------------------
 (0) _main                                                 3     3      0     890
                                              9 BANK0      3     3      0
                  _SYSTEM_Initialize
                    _TMR1_StartTimer
                      _set_led_color
 ---------------------------------------------------------------------------------
 (1) _set_led_color                                        9     6      3     694
                                              0 BANK0      9     6      3
 ---------------------------------------------------------------------------------
 (1) _TMR1_StartTimer                                      0     0      0       0
 ---------------------------------------------------------------------------------
 (1) _SYSTEM_Initialize                                    0     0      0     196
                 _EXT_INT_Initialize
                     _I2C_Initialize
              _OSCILLATOR_Initialize
             _PIN_MANAGER_Initialize
                    _TMR1_Initialize
                     _WDT_Initialize
 ---------------------------------------------------------------------------------
 (2) _WDT_Initialize                                       0     0      0       0
 ---------------------------------------------------------------------------------
 (2) _TMR1_Initialize                                      0     0      0      98
           _TMR1_SetInterruptHandler
 ---------------------------------------------------------------------------------
 (3) _TMR1_SetInterruptHandler                             2     0      2      98
                                              0 BANK0      2     0      2
 ---------------------------------------------------------------------------------
 (2) _PIN_MANAGER_Initialize                               0     0      0       0
 ---------------------------------------------------------------------------------
 (2) _OSCILLATOR_Initialize                                0     0      0       0
 ---------------------------------------------------------------------------------
 (2) _I2C_Initialize                                       0     0      0       0
 ---------------------------------------------------------------------------------
 (2) _EXT_INT_Initialize                                   0     0      0      98
            _INT_SetInterruptHandler
 ---------------------------------------------------------------------------------
 (3) _INT_SetInterruptHandler                              2     0      2      98
                                              0 BANK0      2     0      2
 ---------------------------------------------------------------------------------
 Estimated maximum stack depth 3
 ---------------------------------------------------------------------------------
 (Depth) Function   	        Calls       Base Space   Used Autos Params    Refs
 ---------------------------------------------------------------------------------
 (4) _INTERRUPT_InterruptManager                           0     0      0     634
                            _INT_ISR
                           _TMR1_ISR
                     _TMR1_StopTimer
                    i1_set_led_color
 ---------------------------------------------------------------------------------
 (5) i1_set_led_color                                      9     6      3     394
                                              0 COMMON     9     6      3
 ---------------------------------------------------------------------------------
 (5) _TMR1_StopTimer                                       0     0      0       0
 ---------------------------------------------------------------------------------
 (5) _TMR1_ISR                                             0     0      0     240
                   Absolute function *
       _TMR1_DefaultInterruptHandler *
                    _TMR1_WriteTimer
 ---------------------------------------------------------------------------------
 (6) _TMR1_WriteTimer                                      2     0      2     240
                                              0 COMMON     2     0      2
 ---------------------------------------------------------------------------------
 (6) _TMR1_DefaultInterruptHandler                         0     0      0       0
 ---------------------------------------------------------------------------------
 (5) _INT_ISR                                              0     0      0       0
                       _INT_CallBack
 ---------------------------------------------------------------------------------
 (6) _INT_CallBack                                         0     0      0       0
                   Absolute function *
        _INT_DefaultInterruptHandler *
 ---------------------------------------------------------------------------------
 (7) _INT_DefaultInterruptHandler                          0     0      0       0
 ---------------------------------------------------------------------------------
 (6) Absolute function(Fake)                               1     0      1       0
 ---------------------------------------------------------------------------------
 Estimated maximum stack depth 7
 ---------------------------------------------------------------------------------

 Call Graph Graphs:

 _main (ROOT)
   _SYSTEM_Initialize
     _EXT_INT_Initialize
       _INT_SetInterruptHandler
     _I2C_Initialize
     _OSCILLATOR_Initialize
     _PIN_MANAGER_Initialize
     _TMR1_Initialize
       _TMR1_SetInterruptHandler
     _WDT_Initialize
   _TMR1_StartTimer
   _set_led_color

 _INTERRUPT_InterruptManager (ROOT)
   _INT_ISR
     _INT_CallBack
       Absolute function(Fake) *
       _INT_DefaultInterruptHandler *
   _TMR1_ISR
     Absolute function(Fake) *
     _TMR1_DefaultInterruptHandler *
     _TMR1_WriteTimer *
   _TMR1_StopTimer
   i1_set_led_color

 Address spaces:
Name               Size   Autos  Total    Cost      Usage
BIGRAM             1F0      0       0       0        0.0%
EEDATA             100      0       0       0        0.0%
NULL                 0      0       0       0        0.0%
CODE                 0      0       0       0        0.0%
BITCOMMON            E      0       0       1        0.0%
BITSFR0              0      0       0       1        0.0%
SFR0                 0      0       0       1        0.0%
COMMON               E      9       E       2      100.0%
BITSFR1              0      0       0       2        0.0%
SFR1                 0      0       0       2        0.0%
BITSFR2              0      0       0       3        0.0%
SFR2                 0      0       0       3        0.0%
STACK                0      0       0       3        0.0%
BITSFR3              0      0       0       4        0.0%
SFR3                 0      0       0       4        0.0%
ABS                  0      0      DC       4        0.0%
BITBANK0            50      0       0       5        0.0%
BITSFR4              0      0       0       5        0.0%
SFR4                 0      0       0       5        0.0%
BANK0               50      C      50       6      100.0%
BITSFR5              0      0       0       6        0.0%
SFR5                 0      0       0       6        0.0%
BITBANK1            50      0       0       7        0.0%
BITSFR6              0      0       0       7        0.0%
SFR6                 0      0       0       7        0.0%
BANK1               50      0      3E       8       77.5%
BITSFR7              0      0       0       8        0.0%
SFR7                 0      0       0       8        0.0%
BITBANK2            50      0       0       9        0.0%
BITSFR8              0      0       0       9        0.0%
SFR8                 0      0       0       9        0.0%
BANK2               50      0      40      10       80.0%
BITSFR9              0      0       0      10        0.0%
SFR9                 0      0       0      10        0.0%
BITBANK3            50      0       0      11        0.0%
BITSFR10             0      0       0      11        0.0%
SFR10                0      0       0      11        0.0%
BANK3               50      0       0      12        0.0%
BITSFR11             0      0       0      12        0.0%
SFR11                0      0       0      12        0.0%
BITBANK4            50      0       0      13        0.0%
BITSFR12             0      0       0      13        0.0%
SFR12                0      0       0      13        0.0%
BANK4               50      0       0      14        0.0%
BITSFR13             0      0       0      14        0.0%
SFR13                0      0       0      14        0.0%
BITBANK5            50      0       0      15        0.0%
BITSFR14             0      0       0      15        0.0%
SFR14                0      0       0      15        0.0%
BANK5               50      0       0      16        0.0%
BITSFR15             0      0       0      16        0.0%
SFR15                0      0       0      16        0.0%
BITBANK6            10      0       0      17        0.0%
BITSFR16             0      0       0      17        0.0%
SFR16                0      0       0      17        0.0%
BANK6               10      0       0      18        0.0%
BITSFR17             0      0       0      18        0.0%
SFR17                0      0       0      18        0.0%
BITSFR18             0      0       0      19        0.0%
SFR18                0      0       0      19        0.0%
DATA                 0      0      DC      19        0.0%
BITSFR19             0      0       0      20        0.0%
SFR19                0      0       0      20        0.0%
BITSFR20             0      0       0      21        0.0%
SFR20                0      0       0      21        0.0%
BITSFR21             0      0       0      22        0.0%
SFR21                0      0       0      22        0.0%
BITSFR22             0      0       0      23        0.0%
SFR22                0      0       0      23        0.0%
BITSFR23             0      0       0      24        0.0%
SFR23                0      0       0      24        0.0%
BITSFR24             0      0       0      25        0.0%
SFR24                0      0       0      25        0.0%
BITSFR25             0      0       0      26        0.0%
SFR25                0      0       0      26        0.0%
BITSFR26             0      0       0      27        0.0%
SFR26                0      0       0      27        0.0%
BITSFR27             0      0       0      28        0.0%
SFR27                0      0       0      28        0.0%
BITSFR28             0      0       0      29        0.0%
SFR28                0      0       0      29        0.0%
BITSFR29             0      0       0      30        0.0%
SFR29                0      0       0      30        0.0%
BITSFR30             0      0       0      31        0.0%
SFR30                0      0       0      31        0.0%
BITSFR31             0      0       0      32        0.0%
SFR31                0      0       0      32        0.0%


Microchip Technology PIC Macro Assembler V2.35 build 20211206165544 
Symbol Table                                                                                   Wed Aug 23 14:48:12 2023

                             _SSPSTATbits 0214                                        l70 0252  
                                      l39 01BF                                        l73 0257  
                                      l67 0220                                        l76 027B  
                                     l141 0082                                       l151 00E3  
                                     l152 00ED                                       l145 00A6  
                                     l149 00CA                                       l379 0260  
                                     l725 026C                                       l662 0272  
                                     l668 023E                                       l695 01F8  
                                     l698 027E                           _timer1ReloadVal 007B  
                                     wreg 0009                              _I2C_DO_RESET 0000  
                                    l2630 019E                                      l2640 01AD  
                                    l2632 01A4                                      l2626 026D  
                                    l2650 01B8                                      l2642 01AF  
                                    l2634 01A7                                      l2810 00B5  
                                    l2660 025A                                      l2652 01BA  
                                    l2644 01B2                                      l2636 01A9  
                                    l2628 0267                                      l2820 00CE  
                                    l2804 0092                                      l2662 025C  
                                    l2670 0250                                      l2654 01BB  
                                    l2646 01B4                                      l2638 01AB  
                                    l2830 027C                                      l2822 00D9  
                                    l2806 009F                                      l2664 025F  
                                    l2656 01BD                                      l2648 01B6  
                                    l2680 01E6                                      l2672 0278  
                                    l2816 00B6                                      l2808 00AA  
                                    l2824 00DD                                      l2690 0232  
                                    l2658 0258                                      l2666 024C  
                                    l2682 01E7                                      l2674 01E0  
                                    l2770 020E                                      l2826 00E6  
                                    l2818 00C3                                      l2692 0235  
                                    l2668 024F                                      l2684 01EB  
                                    l2676 01E2                                      l2694 023D  
                                    l2686 01ED                                      l2678 01E4  
                                    l2688 01F5                                      l2792 006E  
                                    l2784 006A                                      l2794 007B  
                                    l2786 006D                                      l2970 017D  
                                    l2796 0086                                      l2980 0197  
                                    l2972 017E                                      l2964 016C  
                                    l2798 0091                                      l2982 0198  
                                    l2974 0184                                      l2966 016F  
                                    l2976 0185                                      l2968 017B  
                                    l2978 0195                                      u1210 007B  
                                    u1211 007A                                      u1140 0257  
                                    u1220 0091                                      u1204 0073  
                                    u1141 0256                                      u1221 0090  
                                    u1205 0072                                      u1240 009F  
                                    u1241 009E                                      u2017 0175  
                                    u1250 00B5                                      u1234 0097  
                                    u2027 00E7                                      u1251 00B4  
                                    u1235 0096                                      _LATA 010C  
                                    u1270 00C3                                      _LATB 010D  
                         __end_of_INT_ISR 0278                                      u1271 00C2  
                                    _LATC 010E                                      u1280 00D9  
                                    u1264 00BB                                      _LATD 010F  
                                    u1281 00D8                                      u1265 00BA  
                                    _LATE 0110                                      u1290 00E3  
                                    u1291 00E2                                      u1540 0184  
                                    u1541 0183                                      _PLLR 04D6  
                                    _WPUB 020D                                      _WPUE 0210  
                                    _main 016C                                      fsr0h 0005  
                                    indf0 0000                                      fsr0l 0004  
                                    btemp 007E       __end_of_INT_DefaultInterruptHandler 0284  
             _INT_DefaultInterruptHandler 0283                                      start 0045  
         __end_of_INT_SetInterruptHandler 0273                ??_TMR1_SetInterruptHandler 0066  
                           _I2C_DO_RX_ACK 0000             __end_of_OSCILLATOR_Initialize 0258  
                                   ?_main 0070                           _TMR1_StartTimer 027C  
                                   _T1CON 0018                                     i1l120 0043  
                                   i1l121 0043                                     i1l113 0015  
                                   i1l141 0107                                     i1l151 0161  
                                   i1l152 016B                                     i1l145 0129  
                                   i1l149 014A                                     i1l701 0281  
                                   i1l722 020D                                     i1l709 0231  
                                   i1l655 0277                                     i1l728 0282  
                                   i1l665 0283                                     i1l659 024B  
                                   _TMR1H 0017                                     _TMR1L 0016  
                                   _TRISA 008C                                     _TRISB 008D  
                                   _TRISC 008E                                     _TRISD 008F  
                                   _TRISE 0090                          __end_of_TMR1_ISR 020E  
                          _WDT_Initialize 0278                   __end_of_TMR1_Initialize 01F9  
                                   pclath 000A                   set_led_color@number_led 0068  
                                   status 0003                                     wtemp0 007E  
                        ?i1_set_led_color 0070                  get_pressure_BMP180@F3879 00D8  
                         _TMR1_WriteTimer 0221                           __initialization 0047  
                            __end_of_main 019E                 i1set_led_color@number_led 0074  
             ?_INTERRUPT_InterruptManager 0070                                    ??_main 006D  
                  __end_of_WDT_Initialize 027C                                 ??_INT_ISR 0070  
                            _DATA_BMP_180 00A0                                    _BMP180 0020  
                                  _APFCON 011D                                    _ANSELA 018C  
                                  _ANSELB 018D                                    _ANSELD 018F  
                                  _ANSELE 0190                                    _BORCON 0116  
                                  _T1GCON 0019                   TMR1_WriteTimer@timerVal 0070  
                                  i1l2910 0115                                    i1l2752 023F  
                                  i1l2760 0227                                    i1l2920 012C  
                                  i1l2904 00F3                                    i1l2754 0246  
                                  i1l2762 0229                                    i1l2930 0144  
                                  i1l2922 0136                                    i1l2906 0100  
                                  i1l2772 0273                                    i1l2764 022B  
                                  i1l2756 0221                                    i1l2780 0202  
                                  i1l2828 027F                                    i1l2932 014D  
                                  i1l2916 0116                                    i1l2908 010B  
                                  i1l2940 0006                                    i1l2774 0274  
                                  i1l2758 0226                                    i1l2766 022D  
                                  i1l2782 0208                                    i1l2934 0157  
                                  i1l2918 0123                                    i1l2950 001E  
                                  i1l2942 000A                                    u203_27 0165  
                                  i1l2768 022F                                    i1l2776 01F9  
                                  i1l2928 0137                                    u140_20 0115  
                                  i1l2936 015B                                    i1l2960 003A  
                                  i1l2952 0023                                    i1l2944 000E  
                                  u140_21 0114                                    i1l2778 01FB  
                                  i1l2938 0164                                    i1l2962 003E  
                                  i1l2954 0026                                    i1l2946 0011  
                                  i1l2956 0030                                    i1l2948 0019  
                                  i1l2958 0037                                    u117_20 0246  
                                  i1l2896 00EF                                    u117_21 0245  
                                  i1l2898 00F2                                    u141_24 011B  
                                  u141_25 011A                                    u118_20 0226  
                                  u142_20 0123                                    u150_20 0019  
                                  u118_21 0225                                    u142_21 0122  
                                  u150_21 0018                                    u119_20 0208  
                                  u143_20 0136                                    u151_20 001E  
                                  u119_21 0207                                    u143_21 0135  
                                  u151_21 001D                                    u152_20 0023  
                                  u152_21 0022                                    u144_24 013C  
                                  u144_25 013B                                    u145_20 0144  
                                  u153_20 0030                                    u145_21 0143  
                                  u153_21 002F                                    u146_20 0157  
                                  u146_21 0156                                    u138_24 00F8  
                                  u138_25 00F7                                    u147_20 0161  
                                  u139_20 0100                                    u147_21 0160  
                                  u139_21 00FF                                    u148_20 000A  
                                  u148_21 0009                                    u149_20 000E  
                                  u149_21 000D                                    _OSCCON 0099  
                                  _WDTCON 0097                                    _SSPADD 0212  
                                  _SSPBUF 0211      __end_of_TMR1_DefaultInterruptHandler 0283  
            _TMR1_DefaultInterruptHandler 0282                   __end_of_TMR1_StartTimer 027F  
                           ?_INT_CallBack 0070                       _I2C_DO_ADDRESS_NACK 0000  
                         ?_WDT_Initialize 0070  TMR1_SetInterruptHandler@InterruptHandler 0064  
 INT_SetInterruptHandler@InterruptHandler 0064                   __end_of_TMR1_WriteTimer 0232  
                        ?_TMR1_Initialize 0070                         _SYSTEM_Initialize 020E  
                   __end_of_set_led_color 00EE                   __end_of__initialization 0064  
                      ?_SYSTEM_Initialize 0070                   _rdBlkRegCompleteHandler 0000  
                          __pcstackCOMMON 0070                    _I2C_CallbackReturnStop 0000  
                     ??_SYSTEM_Initialize 0066                                 ?_TMR1_ISR 0070  
           ?_TMR1_DefaultInterruptHandler 0070                            ??_INT_CallBack 0070  
                          _OPTION_REGbits 0095                 __end_of_SYSTEM_Initialize 0221  
                              __pbssBANK0 0020                                __pbssBANK1 00A0  
                              __pbssBANK2 0120                       _I2C_DO_RX_NACK_STOP 0000  
                   _rd1RegCompleteHandler 0000                     _wr1RegCompleteHandler 0000  
                              __pmaintext 016C                           _I2C_DO_TX_EMPTY 0000  
                        ?_TMR1_StartTimer 0070                                ??_TMR1_ISR 0072  
                              __pintentry 0004                                   _INT_ISR 0273  
                                 _OSCTUNE 0098                                   _SSPCON1 0215  
                                 _SSPCON2 0216                         set_led_color@blue 0066  
                                 _SSPSTAT 0214                          ?_TMR1_WriteTimer 0070  
                               _I2C_DO_RX 0000                                 _I2C_DO_TX 0000  
                          _I2C_Initialize 0258                                   __ptext1 0068  
                                 __ptext2 027C                                   __ptext3 020E  
                                 __ptext4 0278                                   __ptext5 01E0  
                                 __ptext6 0267                                   __ptext7 019E  
                                 __ptext8 024C                                   __ptext9 0258  
                               _COLOR_LED 0120                            set_led_color@i 006A  
          ??_TMR1_DefaultInterruptHandler 0070                                 _T1CONbits 0018  
                   _OSCILLATOR_Initialize 024C                  ??_PIN_MANAGER_Initialize 0064  
               ?_TMR1_SetInterruptHandler 0064                   _INT_SetInterruptHandler 026D  
                                 clrloop0 0262                      end_of_initialization 0064  
                    __end_of_INT_CallBack 024C                    __end_of_I2C_Initialize 0261  
                    i1set_led_color@i_352 0077                      i1set_led_color@i_353 0078  
                    i1set_led_color@green 0071                          ??_WDT_Initialize 0064  
                    _status_communication 007D            set_led_color@number_led_choose 0069  
                             _I2C_DO_IDLE 0000                               _I2C_DO_RCEN 0000  
                _I2C_DO_SEND_RESTART_READ 0000                        _flag_turn_on_light 0063  
                         ?_I2C_Initialize 0070                   _I2C_CallbackReturnReset 0000  
                          _TMR1_StopTimer 027F                    ?_OSCILLATOR_Initialize 0070  
               ??_INT_SetInterruptHandler 0066                       start_initialization 0047  
                  _I2C_DO_RX_NACK_RESTART 0000              ?_INT_DefaultInterruptHandler 0070  
                  __end_of_TMR1_StopTimer 0282                __end_of_EXT_INT_Initialize 023F  
                        _I2C_DO_SEND_STOP 0000                         _i2c_fsmStateTable 01C0  
                       ??i1_set_led_color 0073                     _I2C_DO_SEND_ADR_WRITE 0000  
                             __pbssCOMMON 0079                                 ___latbits 0002  
                                ?_INT_ISR 0070                             __pcstackBANK0 0064  
               _I2C_DO_SEND_RESTART_WRITE 0000                     _rd2RegCompleteHandler 0000  
                  _PIN_MANAGER_Initialize 019E                     _wr2RegCompleteHandler 0000  
           ??_INT_DefaultInterruptHandler 0070          __end_of_TMR1_SetInterruptHandler 026D  
                         ?_TMR1_StopTimer 0070                 __end_of_i2c_fsmStateTable 01E0  
            ??_INTERRUPT_InterruptManager 0079                          set_led_color@red 0064  
                            _INT_CallBack 023F                            _time_out_timer 0061  
                        i1set_led_color@i 0076                             _set_led_color 0068  
                                _LATBbits 010D                                 clear_ram0 0261  
                                _PIE1bits 0091                                  _PIR1bits 0011  
                                _PIR2bits 0012                                  _TMR1_ISR 01F9  
                     i1set_led_color@blue 0072                        set_led_color@i_352 006B  
                      set_led_color@i_353 006C                        set_led_color@green 0065  
                       ??_TMR1_Initialize 0066                                _I2C_Status 0042  
                          ?_set_led_color 0064                          ??_I2C_Initialize 0064  
        i1set_led_color@number_led_choose 0075                   ??_OSCILLATOR_Initialize 0064  
                    _I2C_DO_SEND_ADR_READ 0000                  _TMR1_SetInterruptHandler 0267  
                   _TMR1_InterruptHandler 0079                                  __ptext10 0232  
                                __ptext11 026D                                  __ptext20 0283  
                                __ptext13 00EE                                _T1GCONbits 0019  
                                __ptext14 027F                                  __ptext15 01F9  
                                __ptext16 0221                                  __ptext17 0282  
                                __ptext18 0273                                  __ptext19 023F  
                       ??_TMR1_StartTimer 0064                           i1_set_led_color 00EE  
                      i1set_led_color@red 0070                                  int$flags 007E  
      __end_of_INTERRUPT_InterruptManager 0045                _INTERRUPT_InterruptManager 0004  
                       ??_TMR1_WriteTimer 0072                                _INTCONbits 000B  
                    _INT_InterruptHandler 005F                        _EXT_INT_Initialize 0232  
        get_calibration_data_BMP180@F3861 00C2                           ??_set_led_color 0067  
                                intlevel1 0000                   ?_PIN_MANAGER_Initialize 0070  
                     _I2C_DO_SEND_RESTART 0000                       ?_EXT_INT_Initialize 0070  
                        ??_TMR1_StopTimer 0070                  ?_INT_SetInterruptHandler 0064  
                           __pstringtext1 01C0                      ??_EXT_INT_Initialize 0066  
                             _SSPCON1bits 0215                               _SSPCON2bits 0216  
          __end_of_PIN_MANAGER_Initialize 01C0                   __end_ofi1_set_led_color 016C  
                         _TMR1_Initialize 01E0  
